(dp1
S'test_acc_pathway'
p2
cnumpy.core.multiarray
scalar
p3
(cnumpy
dtype
p4
(S'f8'
I0
I1
tRp5
(I3
S'<'
NNNI-1
I-1
I0
tbS"\x99K\x84'\x05\xc9\xef?"
tRp6
sS'generank_pathway'
p7
(lp8
I9
aI31
aI42
aI55
aI80
aI81
aI107
aI118
aI175
aI179
aI183
aI213
aI215
aI218
aI219
aI244
aI271
aI324
aI335
aI341
aI355
aI412
aI500
aI514
aI527
aI539
aI571
aI587
aI601
aI602
aI693
aI700
aI721
aI750
aI805
aI810
aI876
aI890
aI897
aI950
aI953
aI1142
aI1144
aI1157
aI1190
aI1209
aI1357
aI1394
aI1420
aI1476
aI1482
aI1582
aI1609
aI1666
aI1692
aI1695
aI1820
aI1854
aI1947
aI2041
aI2109
aI2145
aI2189
aI2292
aI2390
aI2418
aI2426
aI2553
aI2563
aI2581
aI2634
aI2690
aI2963
aI2986
aI3107
aI3310
aI3482
aI3658
aI3671
aI3753
aI4060
aI4186
aI4225
aI4229
aI4270
aI4332
aI4406
aI4526
aI5334
aI5549
aI6763
aI6790
aI6864
aI6875
aI7088
aI7104
aI7111
aI7615
aI7969
aI8379
aI8730
aI9108
aI9247
aI9487
aI10172
aI10234
aI10392
aI10442
aI10513
aI10819
aI10887
aI11117
aI11158
aI11611
aI12004
aI12084
aI12531
asS'generank_svm'
p9
(lp10
I0
aI2
aI5
aI9
aI10
aI29
aI42
aI59
aI136
aI150
aI177
aI192
aI229
aI358
aI464
aI495
aI553
aI1121
aI2048
asS'dataset'
p11
S'Lung Cancer'
p12
sS'generank_pair'
p13
(lp14
I9
aI31
aI49
aI56
aI73
aI84
aI102
aI107
aI110
aI113
aI175
aI182
aI205
aI214
aI215
aI231
aI244
aI247
aI285
aI299
aI320
aI325
aI335
aI341
aI395
aI433
aI436
aI469
aI482
aI491
aI526
aI530
aI538
aI542
aI559
aI567
aI576
aI579
aI611
aI645
aI660
aI663
aI687
aI724
aI739
aI743
aI790
aI803
aI805
aI812
aI814
aI890
aI907
aI926
aI947
aI949
aI953
aI1003
aI1059
aI1062
aI1101
aI1105
aI1113
aI1140
aI1154
aI1186
aI1194
aI1212
aI1215
aI1324
aI1341
aI1394
aI1402
aI1427
aI1442
aI1609
aI1656
aI1683
aI1695
aI1820
aI1927
aI1947
aI1975
aI1985
aI2145
aI2299
aI2322
aI2327
aI2383
aI2397
aI2581
aI2616
aI2634
aI2645
aI2716
aI2722
aI2909
aI2958
aI3255
aI3366
aI3372
aI3401
aI3671
aI3692
aI3749
aI3960
aI4044
aI4198
aI4723
aI4731
aI5019
aI5392
aI5751
aI6550
aI7782
aI7855
aI7909
aI8096
aI8666
aI9247
aI10414
aI10636
aI10887
aI11117
aI11944
aI12004
aI12110
aI12213
aI12315
asS'test_acc_svm'
p15
F0.96644295302013428
sS'pair'
p16
S'intracellular signaling cascade + lipid metabolism'
p17
sS'test_acc_pair'
p18
g3
(g5
S"\x99K\x84'\x05\xc9\xef?"
tRp19
sS'pathway'
p20
S'phosphorus metabolism'
p21
s.