(dp1
S'test_acc_pathway'
p2
cnumpy.core.multiarray
scalar
p3
(cnumpy
dtype
p4
(S'f8'
I0
I1
tRp5
(I3
S'<'
NNNI-1
I-1
I0
tbS'KKKKKK\xeb?'
tRp6
sS'generank_pathway'
p7
(lp8
I0
aI1
aI13
aI19
aI33
aI34
aI39
aI55
aI59
aI61
aI63
aI69
aI73
aI74
aI75
aI80
aI82
aI83
aI84
aI90
aI95
aI99
aI103
aI104
aI110
aI114
aI120
aI123
aI124
aI126
aI129
aI150
aI151
aI154
aI158
aI172
aI173
aI175
aI179
aI181
aI183
aI187
aI215
aI228
aI231
aI240
aI245
aI246
aI248
aI271
aI275
aI282
aI289
aI293
aI301
aI302
aI321
aI334
aI341
aI353
aI355
aI360
aI364
aI384
aI401
aI415
aI446
aI447
aI465
aI498
aI523
aI551
aI568
aI574
aI579
aI587
aI602
aI627
aI631
aI637
aI649
aI653
aI655
aI657
aI681
aI693
aI721
aI741
aI763
aI785
aI799
aI800
aI801
aI833
aI894
aI955
aI1015
aI1018
aI1030
aI1043
aI1086
aI1110
aI1124
aI1130
aI1133
aI1146
aI1168
aI1181
aI1188
aI1190
aI1209
aI1218
aI1222
aI1245
aI1278
aI1284
aI1296
aI1323
aI1342
aI1349
aI1406
aI1416
aI1482
aI1485
aI1514
aI1559
aI1569
aI1570
aI1577
aI1580
aI1595
aI1600
aI1603
aI1614
aI1618
aI1638
aI1679
aI1691
aI1742
aI1797
aI1843
aI1861
aI1862
aI2011
aI2043
aI2066
aI2078
aI2140
aI2158
aI2208
aI2244
aI2271
aI2283
aI2290
aI2410
aI2425
aI2438
aI2452
aI2560
aI2569
aI2691
aI2695
aI2754
aI2839
aI2856
aI2870
aI2936
aI2951
aI2963
aI2968
aI2980
aI2983
aI3035
aI3137
aI3143
aI3157
aI3209
aI3368
aI3406
aI3489
aI3650
aI3670
aI3707
aI3729
aI3736
aI3806
aI3851
aI3880
aI3974
aI4001
aI4158
aI4160
aI4172
aI4183
aI4210
aI4232
aI4263
aI4416
aI4437
aI4469
aI4584
aI4602
aI4606
aI4610
aI4623
aI4642
aI4715
aI4832
aI4833
aI4859
aI4880
aI4899
aI4902
aI5016
aI5019
aI5187
aI5205
aI5206
aI5227
aI5264
aI5303
aI5310
aI5356
aI5374
aI5380
aI5509
aI5562
aI5594
aI5637
aI5641
aI5724
aI5745
aI5825
aI5831
aI5876
aI5911
aI5938
aI5943
aI5951
aI5960
aI5996
aI6023
aI6035
aI6043
aI6104
aI6201
aI6234
aI6246
aI6254
aI6278
aI6305
aI6327
aI6414
aI6417
aI6427
aI6458
aI6476
aI6485
aI6500
aI6535
aI6545
aI6607
aI6625
aI6628
aI6686
aI6703
aI6723
aI6767
aI6786
aI6787
aI6819
aI6841
aI6901
aI6909
aI6961
aI7014
aI7031
aI7058
aI7098
aI7108
aI7139
aI7178
aI7218
aI7242
aI7272
aI7335
aI7345
aI7415
aI7431
aI7441
aI7498
aI7504
aI7526
aI7538
aI7547
aI7601
aI7604
aI7621
aI7630
aI7636
aI7728
aI7789
aI7808
aI7831
aI7863
aI7898
aI7902
aI7928
aI7937
aI7981
aI7990
aI7994
aI8011
aI8039
aI8040
aI8051
aI8062
aI8066
aI8076
aI8105
aI8169
aI8180
aI8213
aI8256
aI8265
aI8275
aI8305
aI8312
aI8373
aI8416
aI8431
aI8466
aI8478
aI8481
aI8498
aI8505
aI8581
aI8592
aI8607
aI8608
aI8611
aI8637
aI8640
aI8655
aI8680
aI8707
aI8757
aI8773
aI8782
aI8933
aI8989
aI9023
aI9032
aI9073
aI9095
aI9161
aI9174
aI9213
aI9240
aI9242
aI9294
aI9306
aI9308
aI9383
aI9390
aI9400
aI9442
aI9473
aI9506
aI9515
aI9530
aI9534
aI9546
aI9555
aI9571
aI9579
aI9594
aI9610
aI9617
aI9652
aI9680
aI9717
aI9721
aI9724
aI9766
aI9862
aI9886
aI9935
aI9955
aI9961
aI9970
aI9990
aI10018
aI10026
aI10035
aI10056
aI10058
aI10127
aI10154
aI10185
aI10218
aI10229
aI10241
aI10255
aI10257
aI10272
aI10344
aI10386
aI10387
aI10402
aI10405
aI10420
aI10445
aI10468
aI10472
aI10479
aI10488
aI10505
aI10576
aI10604
aI10663
aI10695
aI10748
aI10751
aI10760
aI10769
aI10770
aI10785
aI10786
aI10788
aI10794
aI10839
aI10888
aI10946
aI10964
aI10992
aI10996
aI11027
aI11038
aI11052
aI11082
aI11106
aI11134
aI11164
aI11174
aI11191
aI11195
aI11221
aI11232
aI11237
aI11245
aI11345
aI11346
aI11359
aI11362
aI11374
aI11390
aI11392
aI11410
aI11445
aI11459
aI11463
aI11466
aI11483
aI11567
aI11586
aI11590
aI11607
aI11633
aI11656
aI11658
aI11688
aI11703
aI11816
aI11848
aI11859
aI11870
aI11874
aI11909
aI11920
aI11925
aI11934
aI11968
aI11984
aI11995
aI12011
aI12047
aI12087
aI12107
aI12133
aI12166
aI12199
aI12251
aI12269
aI12308
aI12320
aI12326
aI12337
aI12359
aI12375
aI12378
aI12390
aI12446
aI12458
aI12466
aI12468
aI12481
aI12483
aI12491
aI12525
aI12532
aI12557
aI12560
aI12565
aI12588
aI12590
asS'generank_svm'
p9
(lp10
I0
aI2
aI11
aI20
aI22
aI26
aI28
aI37
aI56
aI89
aI116
aI152
aI166
aI220
aI229
aI289
aI351
aI375
aI472
aI482
aI592
aI853
aI942
aI1859
aI2425
aI2682
aI3348
aI3885
aI3951
aI3973
aI4469
aI4543
aI4558
aI5019
aI5397
aI5594
aI6117
aI6597
aI7779
aI8572
aI9255
aI9417
aI9649
aI10873
asS'dataset'
p11
S'Prostate Cancer'
p12
sS'generank_pair'
p13
(lp14
I0
aI1
aI13
aI19
aI33
aI34
aI55
aI61
aI63
aI69
aI73
aI74
aI75
aI80
aI84
aI95
aI99
aI103
aI104
aI110
aI114
aI115
aI120
aI124
aI126
aI129
aI150
aI158
aI172
aI173
aI175
aI179
aI181
aI183
aI187
aI215
aI228
aI231
aI240
aI245
aI246
aI271
aI282
aI289
aI293
aI302
aI318
aI321
aI353
aI360
aI384
aI401
aI409
aI415
aI446
aI447
aI465
aI489
aI503
aI521
aI523
aI568
aI574
aI587
aI592
aI602
aI607
aI627
aI631
aI637
aI649
aI653
aI655
aI657
aI681
aI686
aI693
aI721
aI747
aI770
aI785
aI788
aI832
aI833
aI842
aI894
aI955
aI1015
aI1018
aI1043
aI1086
aI1091
aI1110
aI1124
aI1130
aI1133
aI1146
aI1168
aI1177
aI1181
aI1188
aI1190
aI1209
aI1218
aI1222
aI1245
aI1253
aI1278
aI1296
aI1323
aI1328
aI1342
aI1349
aI1406
aI1416
aI1482
aI1485
aI1505
aI1569
aI1570
aI1577
aI1584
aI1595
aI1600
aI1603
aI1614
aI1638
aI1679
aI1691
aI1720
aI1742
aI1746
aI1772
aI1797
aI1843
aI1861
aI1862
aI2007
aI2011
aI2043
aI2066
aI2078
aI2140
aI2158
aI2208
aI2244
aI2271
aI2290
aI2338
aI2425
aI2433
aI2438
aI2452
aI2464
aI2560
aI2569
aI2754
aI2839
aI2856
aI2870
aI2934
aI2936
aI2951
aI2963
aI2968
aI2980
aI2983
aI3021
aI3035
aI3137
aI3209
aI3368
aI3489
aI3496
aI3707
aI3729
aI3736
aI3744
aI3851
aI3880
aI3974
aI4001
aI4158
aI4210
aI4232
aI4331
aI4469
aI4584
aI4602
aI4606
aI4610
aI4623
aI4642
aI4715
aI4859
aI4880
aI4899
aI4928
aI5016
aI5187
aI5205
aI5206
aI5227
aI5264
aI5303
aI5310
aI5374
aI5491
aI5562
aI5637
aI5641
aI5678
aI5745
aI5825
aI5831
aI5876
aI5877
aI5911
aI5943
aI5951
aI5960
aI5983
aI6023
aI6035
aI6043
aI6104
aI6201
aI6219
aI6234
aI6246
aI6254
aI6259
aI6293
aI6305
aI6327
aI6414
aI6427
aI6430
aI6452
aI6458
aI6476
aI6485
aI6500
aI6521
aI6545
aI6564
aI6607
aI6625
aI6628
aI6686
aI6703
aI6723
aI6767
aI6841
aI6909
aI7014
aI7058
aI7098
aI7108
aI7139
aI7178
aI7217
aI7218
aI7242
aI7272
aI7335
aI7345
aI7431
aI7488
aI7504
aI7526
aI7538
aI7547
aI7601
aI7604
aI7621
aI7630
aI7728
aI7808
aI7863
aI7898
aI7937
aI7981
aI7990
aI7994
aI8011
aI8028
aI8039
aI8059
aI8062
aI8066
aI8076
aI8105
aI8213
aI8256
aI8275
aI8312
aI8373
aI8402
aI8416
aI8466
aI8478
aI8481
aI8505
aI8523
aI8592
aI8608
aI8611
aI8616
aI8633
aI8637
aI8640
aI8655
aI8680
aI8707
aI8773
aI8782
aI8862
aI8933
aI8959
aI8989
aI9023
aI9032
aI9075
aI9095
aI9174
aI9213
aI9294
aI9308
aI9339
aI9376
aI9406
aI9473
aI9502
aI9506
aI9515
aI9530
aI9534
aI9571
aI9594
aI9617
aI9628
aI9652
aI9766
aI9862
aI9886
aI9955
aI9961
aI9970
aI9990
aI10018
aI10026
aI10035
aI10058
aI10154
aI10218
aI10229
aI10255
aI10257
aI10344
aI10387
aI10402
aI10405
aI10420
aI10445
aI10468
aI10472
aI10479
aI10488
aI10505
aI10576
aI10604
aI10663
aI10695
aI10748
aI10751
aI10760
aI10769
aI10770
aI10779
aI10785
aI10786
aI10788
aI10794
aI10811
aI10888
aI10905
aI10946
aI10988
aI10992
aI11027
aI11038
aI11052
aI11082
aI11134
aI11164
aI11174
aI11175
aI11195
aI11237
aI11345
aI11346
aI11359
aI11377
aI11390
aI11392
aI11410
aI11413
aI11445
aI11459
aI11463
aI11466
aI11483
aI11534
aI11567
aI11572
aI11586
aI11590
aI11595
aI11607
aI11609
aI11633
aI11656
aI11658
aI11816
aI11848
aI11861
aI11870
aI11909
aI11920
aI11925
aI11934
aI11968
aI11969
aI11984
aI11995
aI12011
aI12047
aI12087
aI12103
aI12166
aI12199
aI12251
aI12269
aI12308
aI12337
aI12359
aI12375
aI12378
aI12390
aI12439
aI12458
aI12466
aI12468
aI12491
aI12525
aI12532
aI12565
aI12571
aI12588
aI12590
aI12592
asS'test_acc_svm'
p15
F0.82352941176470584
sS'pair'
p16
S'protein metabolism + regulation of cell proliferation'
p17
sS'test_acc_pair'
p18
g3
(g5
S'iiiiii\xe9?'
tRp19
sS'pathway'
p20
S'cellular macromolecule metabolism'
p21
s.