(dp1
S'test_acc_pathway'
p2
cnumpy.core.multiarray
scalar
p3
(cnumpy
dtype
p4
(S'f8'
I0
I1
tRp5
(I3
S'<'
NNNI-1
I-1
I0
tbS'UUUUUU\xed?'
tRp6
sS'generank_pathway'
p7
(lp8
I37
aI40
aI51
aI73
aI79
aI96
aI117
aI157
aI170
aI204
aI222
aI231
aI348
aI364
aI413
aI427
aI435
aI447
aI449
aI453
aI523
aI532
aI541
aI544
aI571
aI633
aI639
aI689
aI717
aI718
aI787
aI789
aI798
aI816
aI867
aI925
aI933
aI951
aI1052
aI1070
aI1271
aI1306
aI1322
aI1343
aI1549
aI1557
aI1583
aI1626
aI1661
aI1724
aI1771
aI1786
aI1799
aI1860
aI1922
aI1970
aI1982
aI2041
aI2244
aI2292
aI2293
aI2350
aI2535
aI2606
aI2618
aI2622
aI3534
asS'generank_svm'
p9
(lp10
I0
aI1
aI4
aI9
aI12
aI14
aI24
aI28
aI37
aI40
aI80
aI138
aI159
aI168
aI269
aI436
aI440
aI567
aI1510
asS'dataset'
p11
S'Bcell Lymphoma'
p12
sS'generank_pair'
p13
(lp14
I51
aI200
aI364
aI933
aI977
aI1221
aI1343
aI2132
aI2292
aI3933
asS'test_acc_svm'
p15
F0.91666666666666663
sS'pair'
p16
S'cellular defense response (sensu Vertebrata) + positive regulation of organismal physiological process'
p17
sS'test_acc_pair'
p18
g3
(g5
S'\x00\x00\x00\x00\x00\x00\xe8?'
tRp19
sS'pathway'
p20
S'response to pest, pathogen or parasite'
p21
s.