(dp1
S'GENE2284X'
p2
S'FKBP1AP3'
p3
sS'GENE1617X'
p4
S'DAZ1'
p5
sS'GENE3625X'
p6
S'INHBB'
p7
sS'GENE1298X'
p8
S'COL9A2'
p9
sS'GENE3620X'
p10
S'IDO1'
p11
sS'GENE3529X'
p12
S'IGKV2OR22-3'
p13
sS'GENE173X'
p14
S'AFM'
p15
sS'GENE3192X'
p16
S'HNRNPU'
p17
sS'GENE2012X'
p18
S'EMP1'
p19
sS'GENE3941X'
p20
S'LDHAL2'
p21
sS'GENE3090X'
p22
S'HIC1'
p23
sS'GENE3894X'
p24
S'KSS'
p25
sS'GENE975X'
p26
S'CD81'
p27
sS'GENE2747X'
p28
S'GLUD2'
p29
sS'GENE3145X'
p30
S'HMBS'
p31
sS'GENE3770X'
p32
S'KCNJ14'
p33
sS'GENE3295X'
p34
S'HSD17B4'
p35
sS'GENE1599X'
p36
S'1599'
p37
sS'GENE3450X'
p38
S'3450'
p39
sS'GENE3956X'
p40
S'LGALS1'
p41
sS'GENE3665X'
p42
S'IRF7'
p43
sS'GENE1358X'
p44
S'CPA2'
p45
sS'GENE1995X'
p46
S'ELAVL3'
p47
sS'GENE388X'
p48
S'RHOB'
p49
sS'GENE1250X'
p50
S'CMT2B'
p51
sS'GENE452X'
p52
S'ASSP7'
p53
sS'GENE2253X'
p54
S'FGF8'
p55
sS'GENE1784X'
p56
S'1784'
p57
sS'GENE3909X'
p58
S'LAMA3'
p59
sS'GENE764X'
p60
S'CA5AP1'
p61
sS'GENE2300X'
p62
S'FOXL1'
p63
sS'GENE1269X'
p64
S'CNR2'
p65
sS'GENE1653X'
p66
S'DDX1'
p67
sS'GENE3607X'
p68
S'FOXK2'
p69
sS'GENE1577X'
p70
S'CYP3A5'
p71
sS'GENE2740X'
p72
S'GLP1R'
p73
sS'GENE706X'
p74
S'TSPO'
p75
sS'GENE716X'
p76
S'C1S'
p77
sS'GENE3239X'
p78
S'HOXD13'
p79
sS'GENE676X'
p80
S'BRDT'
p81
sS'GENE2314X'
p82
S'FLII'
p83
sS'GENE928X'
p84
S'CD9'
p85
sS'GENE3707X'
p86
S'ITPKB'
p87
sS'GENE481X'
p88
S'ATP1B1'
p89
sS'GENE3200X'
p90
S'HOXA3'
p91
sS'GENE982X'
p92
S'CDB2'
p93
sS'GENE1390X'
p94
S'CREM'
p95
sS'GENE1859X'
p96
S'DYRK1A'
p97
sS'GENE1866X'
p98
S'DYT7'
p99
sS'GENE3938X'
p100
S'LCT'
p101
sS'GENE1688X'
p102
S'DFNA6'
p103
sS'GENE1276X'
p104
S'COH1'
p105
sS'GENE3534X'
p106
S'IGKV1OR-4'
p107
sS'GENE492X'
p108
S'ATP2B3'
p109
sS'GENE3767X'
p110
S'KCNJ11'
p111
sS'GENE411X'
p112
S'ARSB'
p113
sS'GENE503X'
p114
S'ATP5A1P1'
p115
sS'GENE3397X'
p116
S'ID1'
p117
sS'GENE1846X'
p118
S'DUSP4'
p119
sS'GENE102X'
p120
S'ADAM10'
p121
sS'GENE3185X'
p122
S'HNRNPF'
p123
sS'GENE2244X'
p124
S'FGB'
p125
sS'GENE704X'
p126
S'704'
p127
sS'GENE3914X'
p128
S'LAMB3'
p129
sS'GENE1507X'
p130
S'CTS1'
p131
sS'GENE2395X'
p132
S'FXN'
p133
sS'GENE3563X'
p134
S'IL3RA'
p135
sS'GENE2933X'
p136
S'GSM1'
p137
sS'GENE2020X'
p138
S'EN2'
p139
sS'GENE3472X'
p140
S'IFNWP15'
p141
sS'GENE2855X'
p142
S'GPR32P1'
p143
sS'GENE346X'
p144
S'APOC4'
p145
sS'GENE1497X'
p146
S'CTNS'
p147
sS'GENE151X'
p148
S'ADRA2B'
p149
sS'GENE3170X'
p150
S'FOXA2'
p151
sS'GENE2727X'
p152
S'GLC2A'
p153
sS'GENE3593X'
p154
S'IL12B'
p155
sS'GENE1528X'
p156
S'CYB5A'
p157
sS'GENE93X'
p158
S'ACVR2B'
p159
sS'GENE42X'
p160
S'ACHAP'
p161
sS'GENE39X'
p162
S'ACAT2'
p163
sS'GENE1343X'
p164
S'COX6B1P3'
p165
sS'GENE1216X'
p166
S'CMAR'
p167
sS'GENE326X'
p168
S'AIRE'
p169
sS'GENE1437X'
p170
S'CSF2'
p171
sS'GENE3114X'
p172
S'HLA-DPA2'
p173
sS'GENE2787X'
p174
S'GNG5'
p175
sS'GENE608X'
p176
S'TNFRSF17'
p177
sS'GENE811X'
p178
S'CALR'
p179
sS'GENE3996X'
p180
S'LLGL1'
p181
sS'GENE2478X'
p182
S'FRAXB'
p183
sS'GENE1223X'
p184
S'1223'
p185
sS'GENE3785X'
p186
S'KCNQ2'
p187
sS'GENE2565X'
p188
S'GABRG1'
p189
sS'GENE1557X'
p190
S'CYP2C19'
p191
sS'GENE2337X'
p192
S'FNL1'
p193
sS'GENE160X'
p194
S'AP2A1'
p195
sS'GENE3163X'
p196
S'HMOX2'
p197
sS'GENE2730X'
p198
S'GCLM'
p199
sS'GENE2765X'
p200
S'GML'
p201
sS'GENE2194X'
p202
S'FASN'
p203
sS'GENE655X'
p204
S'BMP7'
p205
sS'GENE2815X'
p206
S'GP9'
p207
sS'GENE1988X'
p208
S'EJM1'
p209
sS'GENE2447X'
p210
S'FRA11I'
p211
sS'GENE276X'
p212
S'AMY1A'
p213
sS'GENE2749X'
p214
S'GLUD1P3'
p215
sS'GENE2989X'
p216
S'GULOP'
p217
sS'GENE3455X'
p218
S'IFNAR2'
p219
sS'GENE3649X'
p220
S'IP1'
p221
sS'GENE1567X'
p222
S'CYP2D7P2'
p223
sS'GENE1243X'
p224
S'CMM'
p225
sS'GENE1234X'
p226
S'CCR5'
p227
sS'GENE2189X'
p228
S'FANCG'
p229
sS'GENE3854X'
p230
S'KRT6B'
p231
sS'GENE2778X'
p232
S'GNAS'
p233
sS'GENE2455X'
p234
S'FRA13C'
p235
sS'GENE273X'
p236
S'AMPH'
p237
sS'GENE1519X'
p238
S'CTSO'
p239
sS'GENE2004X'
p240
S'ELK3'
p241
sS'GENE2808X'
p242
S'GOT2L2'
p243
sS'GENE2942X'
p244
S'GSTA6P'
p245
sS'GENE1615X'
p246
S'DARS'
p247
sS'GENE1218X'
p248
S'CMD1B'
p249
sS'GENE3512X'
p250
S'IGJ'
p251
sS'GENE3838X'
p252
S'KPNA2'
p253
sS'GENE3282X'
p254
S'3282'
p255
sS'GENE239X'
p256
S'ALOX12'
p257
sS'GENE3443X'
p258
S'IFNA6'
p259
sS'GENE242X'
p260
S'ALOX12B'
p261
sS'GENE639X'
p262
S'PRDM1'
p263
sS'GENE3989X'
p264
S'LIPB'
p265
sS'GENE328X'
p266
S'APEX1'
p267
sS'GENE2890X'
p268
S'GRIA1'
p269
sS'GENE3861X'
p270
S'KRT14'
p271
sS'GENE2543X'
p272
S'GAGE1'
p273
sS'GENE3043X'
p274
S'HBB'
p275
sS'GENE1886X'
p276
S'EBS1'
p277
sS'GENE1129X'
p278
S'CHRM2'
p279
sS'GENE457X'
p280
S'ASSP12'
p281
sS'GENE2911X'
p282
S'GRM1'
p283
sS'GENE2944X'
p284
S'GSTM1'
p285
sS'GENE1105X'
p286
S'CHD1'
p287
sS'GENE1150X'
p288
S'CIDX'
p289
sS'GENE2115X'
p290
S'ETV1'
p291
sS'GENE2701X'
p292
S'GJA4'
p293
sS'GENE753X'
p294
S'LDLRAD4'
p295
sS'GENE2220X'
p296
S'FCN2'
p297
sS'GENE2906X'
p298
S'GRIN2D'
p299
sS'GENE2055X'
p300
S'CLN8'
p301
sS'GENE3019X'
p302
S'H3F2'
p303
sS'GENE519X'
p304
S'519'
p305
sS'GENE2489X'
p306
S'FSHMD1A'
p307
sS'GENE472X'
p308
S'ATM'
p309
sS'GENE1415X'
p310
S'CRYBB2'
p311
sS'GENE622X'
p312
S'BDH1'
p313
sS'GENE2959X'
p314
S'GTF2B'
p315
sS'GENE2984X'
p316
S'GUCY2C'
p317
sS'GENE2069X'
p318
S'EREG'
p319
sS'GENE3014X'
p320
S'H2AFX'
p321
sS'GENE4006X'
p322
S'LMO3'
p323
sS'GENE2037X'
p324
S'EPB41L2'
p325
sS'GENE3465X'
p326
S'IFNP24'
p327
sS'GENE736X'
p328
S'736'
p329
sS'GENE617X'
p330
S'BCS1L'
p331
sS'GENE2056X'
p332
S'EPO'
p333
sS'GENE957X'
p334
S'ENTPD5'
p335
sS'GENE2409X'
p336
S'FRA7B'
p337
sS'GENE642X'
p338
S'BLMH'
p339
sS'GENE449X'
p340
S'ASS1P4'
p341
sS'GENE1448X'
p342
S'CSN3'
p343
sS'GENE3876X'
p344
S'KRT18P11'
p345
sS'GENE637X'
p346
S'BID'
p347
sS'GENE2833X'
p348
S'CXCR3'
p349
sS'GENE4024X'
p350
S'MATR1'
p351
sS'GENE2465X'
p352
S'FRA17A'
p353
sS'GENE2430X'
p354
S'FRA9F'
p355
sS'GENE2487X'
p356
S'FRZB'
p357
sS'GENE2578X'
p358
S'GAGE6'
p359
sS'GENE2920X'
p360
S'CXCL2'
p361
sS'GENE64X'
p362
S'ACTBP4'
p363
sS'GENE2968X'
p364
S'GTF2H4'
p365
sS'GENE2993X'
p366
S'GYPA'
p367
sS'GENE570X'
p368
S'BAAT'
p369
sS'GENE2842X'
p370
S'GPR19'
p371
sS'GENE1512X'
p372
S'CTSH'
p373
sS'GENE3575X'
p374
S'IL7R'
p375
sS'GENE1891X'
p376
S'ECH1'
p377
sS'GENE462X'
p378
S'SERPINC1'
p379
sS'GENE756X'
p380
S'756'
p381
sS'GENE1463X'
p382
S'NCAN'
p383
sS'GENE360X'
p384
S'AQP3'
p385
sS'GENE1471X'
p386
S'CST3'
p387
sS'GENE2622X'
p388
S'GAS8'
p389
sS'GENE545X'
p390
S'ATR'
p391
sS'GENE1761X'
p392
S'DMRT1'
p393
sS'GENE1812X'
p394
S'DRD1'
p395
sS'GENE812X'
p396
S'812'
p397
sS'GENE865X'
p398
S'CBFB'
p399
sS'GENE3336X'
p400
S'HSPE1'
p401
sS'GENE2202X'
p402
S'EFEMP1'
p403
sS'GENE1918X'
p404
S'EEF1A1P43'
p405
sS'GENE1147X'
p406
S'CHUK'
p407
sS'GENE3439X'
p408
S'IFNA1'
p409
sS'GENE3316X'
p410
S'HSPB2'
p411
sS'GENE1047X'
p412
S'CLGN'
p413
sS'GENE2040X'
p414
S'STOM'
p415
sS'GENE3054X'
p416
S'HCFC1'
p417
sS'GENE1943X'
p418
S'EFNA2'
p419
sS'GENE1087X'
p420
S'CEACAM7'
p421
sS'GENE3094X'
p422
S'HINT1'
p423
sS'GENE695X'
p424
S'BTK'
p425
sS'GENE2379X'
p426
S'FRA2G'
p427
sS'GENE2144X'
p428
S'EYCL3'
p429
sS'GENE1001X'
p430
S'CDH3'
p431
sS'GENE3276X'
p432
S'PRMT1'
p433
sS'GENE415X'
p434
S'ARSE'
p435
sS'GENE2592X'
p436
S'GALT'
p437
sS'GENE1406X'
p438
S'CRX'
p439
sS'GENE1187X'
p440
S'CLCNKA'
p441
sS'GENE2355X'
p442
S'FOSL2'
p443
sS'GENE30X'
p444
S'ACAA1'
p445
sS'GENE128X'
p446
S'ADH5'
p447
sS'GENE1367X'
p448
S'CPL1'
p449
sS'GENE289X'
p450
S'ANOP1'
p451
sS'GENE2133X'
p452
S'EXT3'
p453
sS'GENE3436X'
p454
S'3436'
p455
sS'GENE1027X'
p456
S'CDKN1B'
p457
sS'GENE1402X'
p458
S'CRPP1'
p459
sS'GENE2682X'
p460
S'GGTA1P'
p461
sS'GENE1932X'
p462
S'EEF1B2P1'
p463
sS'GENE2653X'
p464
S'GCSH'
p465
sS'GENE3681X'
p466
S'ITGAD'
p467
sS'GENE291X'
p468
S'SLC25A4'
p469
sS'GENE2532X'
p470
S'DARC'
p471
sS'GENE3072X'
p472
S'3072'
p473
sS'GENE1127X'
p474
S'CHR39C'
p475
sS'GENE1067X'
p476
S'1067'
p477
sS'GENE1090X'
p478
S'CEACAMP1'
p479
sS'GENE1386X'
p480
S'ATF2'
p481
sS'GENE4011X'
p482
S'4011'
p483
sS'GENE777X'
p484
S'CACNA1E'
p485
sS'GENE3424X'
p486
S'IDSP1'
p487
sS'GENE2233X'
p488
S'FEB1'
p489
sS'GENE559X'
p490
S'AXPC1'
p491
sS'GENE1858X'
p492
S'DWS'
p493
sS'GENE2377X'
p494
S'FRA2E'
p495
sS'GENE528X'
p496
S'ATP6V1C1'
p497
sS'GENE843X'
p498
S'CASP10'
p499
sS'GENE3238X'
p500
S'HOXD12'
p501
sS'GENE3255X'
p502
S'HPRTP3'
p503
sS'GENE2003X'
p504
S'ELK2AP'
p505
sS'GENE509X'
p506
S'ATP5C1'
p507
sS'GENE677X'
p508
S'ZFP36L1'
p509
sS'GENE1317X'
p510
S'SLC31A1'
p511
sS'GENE3301X'
p512
S'DNAJA1'
p513
sS'GENE883X'
p514
S'CCBL1'
p515
sS'GENE1381X'
p516
S'CRABP1'
p517
sS'GENE3706X'
p518
S'ITPKA'
p519
sS'GENE3250X'
p520
S'HPR'
p521
sS'GENE3201X'
p522
S'HOXA4'
p523
sS'GENE952X'
p524
S'CD38'
p525
sS'GENE983X'
p526
S'CDK1'
p527
sS'GENE1391X'
p528
S'CRG'
p529
sS'GENE846X'
p530
S'CASR'
p531
sS'GENE1754X'
p532
S'SIX5'
p533
sS'GENE1867X'
p534
S'DYX1'
p535
sS'GENE3939X'
p536
S'LDHA'
p537
sS'GENE890X'
p538
S'CCNA2'
p539
sS'GENE1689X'
p540
S'DFNA7'
p541
sS'GENE484X'
p542
S'ATP1B3P1'
p543
sS'GENE3535X'
p544
S'IGL'
p545
sS'GENE3766X'
p546
S'KCNJ10'
p547
sS'GENE1275X'
p548
S'COD2'
p549
sS'GENE2317X'
p550
S'FLNB'
p551
sS'GENE504X'
p552
S'ATP5A1P2'
p553
sS'GENE3639X'
p554
S'INSL2'
p555
sS'GENE3394X'
p556
S'IRF8'
p557
sS'GENE3970X'
p558
S'LGMD2G'
p559
sS'GENE3184X'
p560
S'HNRNPD'
p561
sS'GENE103X'
p562
S'ADAR'
p563
sS'GENE3006X'
p564
S'HIST1H1C'
p565
sS'GENE135X'
p566
S'ADORA2A'
p567
sS'GENE1634X'
p568
S'DCN'
p569
sS'GENE2215X'
p570
S'FCGR3B'
p571
sS'GENE3744X'
p572
S'KCNA10'
p573
sS'GENE963X'
p574
S'CD53'
p575
sS'GENE688X'
p576
S'KLF5'
p577
sS'GENE822X'
p578
S'CAPG'
p579
sS'GENE1869X'
p580
S'E2F1'
p581
sS'GENE3209X'
p582
S'HOXA13'
p583
sS'GENE1905X'
p584
S'1905'
p585
sS'GENE2664X'
p586
S'GDI1'
p587
sS'GENE1950X'
p588
S'EGF'
p589
sS'GENE3728X'
p590
S'JUP'
p591
sS'GENE1772X'
p592
S'DNAH14'
p593
sS'GENE1805X'
p594
S'DPT'
p595
sS'GENE1705X'
p596
S'DFNB13'
p597
sS'GENE1300X'
p598
S'COL10A1'
p599
sS'GENE3370X'
p600
S'HVBS8'
p601
sS'GENE872X'
p602
S'SERPINH2'
p603
sS'GENE3486X'
p604
S'IGFBP3'
p605
sS'GENE1070X'
p606
S'CETN3'
p607
sS'GENE2097X'
p608
S'ESB3'
p609
sS'GENE1961X'
p610
S'EGR4'
p611
sS'GENE2600X'
p612
S'GAPDHL3'
p613
sS'GENE1723X'
p614
S'DHODH'
p615
sS'GENE1743X'
p616
S'DLST'
p617
sS'GENE2896X'
p618
S'GRN'
p619
sS'GENE1326X'
p620
S'MAP3K8'
p621
sS'GENE1049X'
p622
S'1049'
p623
sS'GENE794X'
p624
S'CALB2'
p625
sS'GENE3249X'
p626
S'HPN'
p627
sS'GENE2604X'
p628
S'GAPDHL7'
p629
sS'GENE1622X'
p630
S'DBI'
p631
sS'GENE3162X'
p632
S'HMOX1'
p633
sS'GENE161X'
p634
S'AP2A2'
p635
sS'GENE2691X'
p636
S'GHRH'
p637
sS'GENE1444X'
p638
S'CSHL1'
p639
sS'GENE2766X'
p640
S'GMPR'
p641
sS'GENE2193X'
p642
S'FARSA'
p643
sS'GENE656X'
p644
S'BMP8B'
p645
sS'GENE1609X'
p646
S'DGKQ'
p647
sS'GENE1253X'
p648
S'CMTX2'
p649
sS'GENE1728X'
p650
S'NQO1'
p651
sS'GENE2249X'
p652
S'FGF4'
p653
sS'GENE2294X'
p654
S'FOXF1'
p655
sS'GENE209X'
p656
S'209'
p657
sS'GENE599X'
p658
S'BCL2L2'
p659
sS'GENE2926X'
p660
S'GRSF1'
p661
sS'GENE3988X'
p662
S'LIPA'
p663
sS'GENE3653X'
p664
S'IPW'
p665
sS'GENE2031X'
p666
S'ENUR1'
p667
sS'GENE1240X'
p668
S'CMKLR1'
p669
sS'GENE830X'
p670
S'CAPZA2'
p671
sS'GENE3857X'
p672
S'KRT9'
p673
sS'GENE2446X'
p674
S'FRA11H'
p675
sS'GENE1515X'
p676
S'CTSV'
p677
sS'GENE1614X'
p678
S'1614'
p679
sS'GENE3513X'
p680
S'IGJP1'
p681
sS'GENE3283X'
p682
S'HSD3B1'
p683
sS'GENE3837X'
p684
S'KPNB1'
p685
sS'GENE3743X'
p686
S'KCNA7'
p687
sS'GENE717X'
p688
S'C2'
p689
sS'GENE3440X'
p690
S'IFNA2'
p691
sS'GENE3144X'
p692
S'3144'
p693
sS'GENE2278X'
p694
S'2278'
p695
sS'GENE2283X'
p696
S'FKBP1AP2'
p697
sS'GENE2603X'
p698
S'GAPDHL6'
p699
sS'GENE3528X'
p700
S'II'
p701
sS'GENE1847X'
p702
S'DUSP5'
p703
sS'GENE3915X'
p704
S'LAMC1'
p705
sS'GENE1738X'
p706
S'DLD'
p707
sS'GENE3671X'
p708
S'ISLR'
p709
sS'GENE1771X'
p710
S'DNAH13'
p711
sS'GENE3897X'
p712
S'L1CAM'
p713
sS'GENE1652X'
p714
S'DDT'
p715
sS'GENE3771X'
p716
S'KCS'
p717
sS'GENE3294X'
p718
S'HSD17B2'
p719
sS'GENE3957X'
p720
S'LGALS2'
p721
sS'GENE2712X'
p722
S'GK2'
p723
sS'GENE1359X'
p724
S'CPA3'
p725
sS'GENE3453X'
p726
S'IFNA22P'
p727
sS'GENE3662X'
p728
S'IRF4'
p729
sS'GENE3193X'
p730
S'HOAC'
p731
sS'GENE2613X'
p732
S'GAPDHP71'
p733
sS'GENE2254X'
p734
S'FGF9'
p735
sS'GENE886X'
p736
S'CCKAR'
p737
sS'GENE3908X'
p738
S'LAMA2'
p739
sS'GENE641X'
p740
S'BLM'
p741
sS'GENE2301X'
p742
S'FOXE3'
p743
sS'GENE2874X'
p744
S'GPS2'
p745
sS'GENE2921X'
p746
S'CXCL3'
p747
sS'GENE3859X'
p748
S'KRT12'
p749
sS'GENE2522X'
p750
S'FUSE'
p751
sS'GENE735X'
p752
S'C9'
p753
sS'GENE3466X'
p754
S'IFNR'
p755
sS'GENE618X'
p756
S'BCYRN1'
p757
sS'GENE2408X'
p758
S'FRA7A'
p759
sS'GENE1449X'
p760
S'1449'
p761
sS'GENE448X'
p762
S'ASSP3'
p763
sS'GENE2751X'
p764
S'GLUD1P5'
p765
sS'GENE2784X'
p766
S'GNB3'
p767
sS'GENE916X'
p768
S'CD3E'
p769
sS'GENE1863X'
p770
S'DYT3'
p771
sS'GENE634X'
p772
S'CEACAM1'
p773
sS'GENE635X'
p774
S'BHMT'
p775
sS'GENE2464X'
p776
S'FRA16E'
p777
sS'GENE2431X'
p778
S'FRA10A'
p779
sS'GENE2486X'
p780
S'FRV3'
p781
sS'GENE2427X'
p782
S'FRA9C'
p783
sS'GENE2969X'
p784
S'GTF2I'
p785
sS'GENE2992X'
p786
S'GYG1'
p787
sS'GENE573X'
p788
S'BAG1'
p789
sS'GENE1671X'
p790
S'DEFA6'
p791
sS'GENE2845X'
p792
S'GPR22'
p793
sS'GENE2898X'
p794
S'GRIK2'
p795
sS'GENE3802X'
p796
S'KIR2DL1'
p797
sS'GENE3875X'
p798
S'KRT18'
p799
sS'GENE1890X'
p800
S'TYMP'
p801
sS'GENE2009X'
p802
S'EML1'
p803
sS'GENE759X'
p804
S'CA1'
p805
sS'GENE1538X'
p806
S'CYLC1'
p807
sS'GENE89X'
p808
S'ACTN3'
p809
sS'GENE1470X'
p810
S'CST2'
p811
sS'GENE361X'
p812
S'AQP4'
p813
sS'GENE2184X'
p814
S'FAH'
p815
sS'GENE2394X'
p816
S'FRA5B'
p817
sS'GENE1998X'
p818
S'ELF2'
p819
sS'GENE3562X'
p820
S'IL3'
p821
sS'GENE2389X'
p822
S'FRA4B'
p823
sS'GENE909X'
p824
S'CD1A'
p825
sS'GENE2932X'
p826
S'GSK3B'
p827
sS'GENE3828X'
p828
S'KNO'
p829
sS'GENE424X'
p830
S'ARVD3'
p831
sS'GENE370X'
p832
S'ARAF2P'
p833
sS'GENE586X'
p834
S'BCAT1'
p835
sS'GENE2852X'
p836
S'GPER1'
p837
sS'GENE1496X'
p838
S'CTNNA2'
p839
sS'GENE25X'
p840
S'ABL1'
p841
sS'GENE3171X'
p842
S'FOXA3'
p843
sS'GENE150X'
p844
S'ADRA2A'
p845
sS'GENE3488X'
p846
S'IGFBP5'
p847
sS'GENE2720X'
p848
S'GLB1'
p849
sS'GENE41X'
p850
S'ASIC1'
p851
sS'GENE267X'
p852
S'AMFR'
p853
sS'GENE1554X'
p854
S'CYP2B'
p855
sS'GENE728X'
p856
S'C5AR1'
p857
sS'GENE2737X'
p858
S'GLI3'
p859
sS'GENE2863X'
p860
S'GPR39'
p861
sS'GENE1481X'
p862
S'CSTP2'
p863
sS'GENE1436X'
p864
S'CSF1R'
p865
sS'GENE327X'
p866
S'APEH'
p867
sS'GENE3115X'
p868
S'HLA-DPB1'
p869
sS'GENE207X'
p870
S'AKT1'
p871
sS'GENE3471X'
p872
S'IFNWP9'
p873
sS'GENE3997X'
p874
S'LLP'
p875
sS'GENE2479X'
p876
S'FRAXC'
p877
sS'GENE3784X'
p878
S'KCNQ1'
p879
sS'GENE307X'
p880
S'ANXA4'
p881
sS'GENE3811X'
p882
S'KIR3DL1'
p883
sS'GENE2132X'
p884
S'EXT2'
p885
sS'GENE288X'
p886
S'ANK3'
p887
sS'GENE1403X'
p888
S'CRS'
p889
sS'GENE402X'
p890
S'ARL2'
p891
sS'GENE1024X'
p892
S'CDK8'
p893
sS'GENE1933X'
p894
S'EEF1B2'
p895
sS'GENE2681X'
p896
S'GGTA1P'
p897
sS'GENE1160X'
p898
S'CKMT2'
p899
sS'GENE73X'
p900
S'ACTG1P1'
p901
sS'GENE2535X'
p902
S'FZD2'
p903
sS'GENE3071X'
p904
S'NCKAP1L'
p905
sS'GENE2063X'
p906
S'NR2F6'
p907
sS'GENE1126X'
p908
S'CHR39B'
p909
sS'GENE96X'
p910
S'ACY1L'
p911
sS'GENE139X'
p912
S'ADORA2L2'
p913
sS'GENE1039X'
p914
S'CDR2'
p915
sS'GENE1064X'
p916
S'CEPA'
p917
sS'GENE551X'
p918
S'AVP'
p919
sS'GENE3682X'
p920
S'ITGAE'
p921
sS'GENE3425X'
p922
S'IDUA'
p923
sS'GENE4012X'
p924
S'LNPEP'
p925
sS'GENE1672X'
p926
S'DEFB1'
p927
sS'GENE1647X'
p928
S'GADD45A'
p929
sS'GENE2230X'
p930
S'FDX1'
p931
sS'GENE2114X'
p932
S'ETS2'
p933
sS'GENE1447X'
p934
S'CSN2'
p935
sS'GENE1438X'
p936
S'CSF2RA'
p937
sS'GENE3220X'
p938
S'HOXC@'
p939
sS'GENE3573X'
p940
S'IL6STP1'
p941
sS'GENE3862X'
p942
S'KRT14P'
p943
sS'GENE1887X'
p944
S'EBVM1'
p945
sS'GENE3543X'
p946
S'IGLL1'
p947
sS'GENE3040X'
p948
S'HBA2'
p949
sS'GENE1128X'
p950
S'CHRM1'
p951
sS'GENE2910X'
p952
S'NR3C1P1'
p953
sS'GENE2945X'
p954
S'2945'
p955
sS'GENE2568X'
p956
S'GABRP'
p957
sS'GENE2041X'
p958
S'EPHA1'
p959
sS'GENE1104X'
p960
S'RCC1'
p961
sS'GENE1151X'
p962
S'1151'
p963
sS'GENE67X'
p964
S'ACTBP7'
p965
sS'GENE1641X'
p966
S'DCX'
p967
sS'GENE4005X'
p968
S'LMO2'
p969
sS'GENE2907X'
p970
S'GRINA'
p971
sS'GENE497X'
p972
S'497'
p973
sS'GENE2223X'
p974
S'FDH'
p975
sS'GENE2052X'
p976
S'EPHX1'
p977
sS'GENE2885X'
p978
S'GRB2'
p979
sS'GENE2488X'
p980
S'FSHB'
p981
sS'GENE310X'
p982
S'ANXA7'
p983
sS'GENE1335X'
p984
S'1335'
p985
sS'GENE473X'
p986
S'RERE'
p987
sS'GENE1480X'
p988
S'CSTP1'
p989
sS'GENE2958X'
p990
S'GTF2A2'
p991
sS'GENE2985X'
p992
S'GUCY2E'
p993
sS'GENE3039X'
p994
S'HBA1'
p995
sS'GENE454X'
p996
S'ASS1P9'
p997
sS'GENE560X'
p998
S'AZF1'
p999
sS'GENE873X'
p1000
S'CBR1'
p1001
sS'GENE134X'
p1002
S'ADORA1'
p1003
sS'GENE2216X'
p1004
S'FDX1P2'
p1005
sS'GENE423X'
p1006
S'ARVD2'
p1007
sS'GENE3262X'
p1008
S'HPVC1'
p1009
sS'GENE960X'
p1010
S'CD44'
p1011
sS'GENE3215X'
p1012
S'HOXB5'
p1013
sS'GENE78X'
p1014
S'ACTG1P6'
p1015
sS'GENE1904X'
p1016
S'1904'
p1017
sS'GENE1002X'
p1018
S'CDH4'
p1019
sS'GENE1951X'
p1020
S'CELSR3'
p1021
sS'GENE2148X'
p1022
S'F2L'
p1023
sS'GENE3727X'
p1024
S'JUND'
p1025
sS'GENE1773X'
p1026
S'DNASE1'
p1027
sS'GENE1704X'
p1028
S'1704'
p1029
sS'GENE3371X'
p1030
S'TNC'
p1031
sS'GENE790X'
p1032
S'CAD'
p1033
sS'GENE3581X'
p1034
S'IL9R'
p1035
sS'GENE3339X'
p1036
S'HSPG2'
p1037
sS'GENE3494X'
p1038
S'IGHA2'
p1039
sS'GENE1073X'
p1040
S'CFL2'
p1041
sS'GENE1960X'
p1042
S'EGR3'
p1043
sS'GENE1817X'
p1044
S'DRD5P1'
p1045
sS'GENE2094X'
p1046
S'ERVT4'
p1047
sS'GENE2607X'
p1048
S'GAPDHL10'
p1049
sS'GENE1742X'
p1050
S'DLG4'
p1051
sS'GENE1901X'
p1052
S'S1PR1'
p1053
sS'GENE919X'
p1054
S'CD247'
p1055
sS'GENE1942X'
p1056
S'EFNA1'
p1057
sS'GENE3976X'
p1058
S'LIF'
p1059
sS'GENE3057X'
p1060
S'HCL2'
p1061
sS'GENE2625X'
p1062
S'GATA3'
p1063
sS'GENE546X'
p1064
S'ATRX'
p1065
sS'GENE813X'
p1066
S'CALU'
p1067
sS'GENE3489X'
p1068
S'IGFBP6'
p1069
sS'GENE2141X'
p1070
S'EYCL1'
p1071
sS'GENE3037X'
p1072
S'HAS2'
p1073
sS'GENE2649X'
p1074
S'NR6A1'
p1075
sS'GENE1146X'
p1076
S'CHRNG'
p1077
sS'GENE762X'
p1078
S'CA4'
p1079
sS'GENE386X'
p1080
S'386'
p1081
sS'GENE1457X'
p1082
S'CSNK2A1'
p1083
sS'GENE3438X'
p1084
S'IFN1@'
p1085
sS'GENE441X'
p1086
S'ASNSL1'
p1087
sS'GENE3317X'
p1088
S'HSPBL1'
p1089
sS'GENE129X'
p1090
S'ADH5P1'
p1091
sS'GENE1080X'
p1092
S'CFTR'
p1093
sS'GENE3097X'
p1094
S'HIVEP2'
p1095
sS'GENE696X'
p1096
S'BTN1A1'
p1097
sS'GENE1006X'
p1098
S'CDH8'
p1099
sS'GENE2378X'
p1100
S'FRA2F'
p1101
sS'GENE2145X'
p1102
S'EZH1'
p1103
sS'GENE1919X'
p1104
S'EEF1A1P3'
p1105
sS'GENE2201X'
p1106
S'FBN2'
p1107
sS'GENE412X'
p1108
S'STS'
p1109
sS'GENE3271X'
p1110
S'HRD'
p1111
sS'GENE2591X'
p1112
S'GALNT3'
p1113
sS'GENE1186X'
p1114
S'CLCN7'
p1115
sS'GENE2354X'
p1116
S'FOSB'
p1117
sS'GENE264X'
p1118
S'AMDM'
p1119
sS'GENE3896X'
p1120
S'KWE'
p1121
sS'GENE977X'
p1122
S'CD151'
p1123
sS'GENE2279X'
p1124
S'2279'
p1125
sS'GENE3143X'
p1126
S'3143'
p1127
sS'GENE2282X'
p1128
S'FKBP1AP1'
p1129
sS'GENE1783X'
p1130
S'DYNC1LI2'
p1131
sS'GENE1274X'
p1132
S'COD1'
p1133
sS'GENE3244X'
p1134
S'HPE1'
p1135
sS'GENE490X'
p1136
S'ATP2B1'
p1137
sS'GENE3765X'
p1138
S'KCNJ9'
p1139
sS'GENE1570X'
p1140
S'CYP2DP1'
p1141
sS'GENE1149X'
p1142
S'CIDEA'
p1143
sS'GENE1848X'
p1144
S'DUSP6'
p1145
sS'GENE3670X'
p1146
S'ISL1'
p1147
sS'GENE3916X'
p1148
S'LAMP1'
p1149
sS'GENE23X'
p1150
S'ABCF1'
p1151
sS'GENE2079X'
p1152
S'ERH'
p1153
sS'GENE1655X'
p1154
S'DDX5'
p1155
sS'GENE786X'
p1156
S'CACNG1'
p1157
sS'GENE3772X'
p1158
S'KCNJ15'
p1159
sS'GENE1597X'
p1160
S'1597'
p1161
sS'GENE224X'
p1162
S'ALDH3A2'
p1163
sS'GENE3452X'
p1164
S'IFNA21'
p1165
sS'GENE3950X'
p1166
S'LECT2'
p1167
sS'GENE3663X'
p1168
S'IRF5'
p1169
sS'GENE2126X'
p1170
S'EVR1'
p1171
sS'GENE1793X'
p1172
S'DOCK1'
p1173
sS'GENE1639X'
p1174
S'DCTN1'
p1175
sS'GENE175X'
p1176
S'AGA'
p1177
sS'GENE3194X'
p1178
S'HOMG'
p1179
sS'GENE2255X'
p1180
S'FGF10'
p1181
sS'GENE2159X'
p1182
S'F10'
p1183
sS'GENE1372X'
p1184
S'CPP'
p1185
sS'GENE1521X'
p1186
S'CTSW'
p1187
sS'GENE1513X'
p1188
S'CTSK'
p1189
sS'GENE698X'
p1190
S'BTS1'
p1191
sS'GENE2376X'
p1192
S'FRA2D'
p1193
sS'GENE1392X'
p1194
S'CRH'
p1195
sS'GENE1329X'
p1196
S'COX5B'
p1197
sS'GENE3601X'
p1198
S'IL15RA'
p1199
sS'GENE2089X'
p1200
S'ERVT1'
p1201
sS'GENE1713X'
p1202
S'DFNB20'
p1203
sS'GENE3300X'
p1204
S'DNAJB2'
p1205
sS'GENE835X'
p1206
S'CASP2'
p1207
sS'GENE1310X'
p1208
S'COL19A1'
p1209
sS'GENE1084X'
p1210
S'CEACAM3'
p1211
sS'GENE687X'
p1212
S'KLF9'
p1213
sS'GENE3059X'
p1214
S'HCLS1'
p1215
sS'GENE2331X'
p1216
S'FMOD'
p1217
sS'GENE382X'
p1218
S'ARF6'
p1219
sS'GENE3701X'
p1220
S'3701'
p1221
sS'GENE951X'
p1222
S'CD37'
p1223
sS'GENE3202X'
p1224
S'HOXA5'
p1225
sS'GENE3749X'
p1226
S'KCNC4'
p1227
sS'GENE999X'
p1228
S'CDH1'
p1229
sS'GENE1864X'
p1230
S'DYT4'
p1231
sS'GENE3936X'
p1232
S'LCP1'
p1233
sS'GENE674X'
p1234
S'BRAFPS1'
p1235
sS'GENE2316X'
p1236
S'FLNA'
p1237
sS'GENE3638X'
p1238
S'INSIG1'
p1239
sS'GENE505X'
p1240
S'ATP5AP3'
p1241
sS'GENE3395X'
p1242
S'3395'
p1243
sS'GENE2185X'
p1244
S'PTK2B'
p1245
sS'GENE1562X'
p1246
S'CYP2C18'
p1247
sS'GENE1769X'
p1248
S'DNAH8'
p1249
sS'GENE1569X'
p1250
S'CYP2DL1'
p1251
sS'GENE1999X'
p1252
S'ELF3'
p1253
sS'GENE2452X'
p1254
S'FRA12E'
p1255
sS'GENE2425X'
p1256
S'FRA9A'
p1257
sS'GENE3565X'
p1258
S'IL4'
p1259
sS'GENE3829X'
p1260
S'KNPEP'
p1261
sS'GENE71X'
p1262
S'ACTG1'
p1263
sS'GENE24X'
p1264
S'ABCA4'
p1265
sS'GENE587X'
p1266
S'BCAT2'
p1267
sS'GENE2853X'
p1268
S'GPR31'
p1269
sS'GENE344X'
p1270
S'APOC2'
p1271
sS'GENE1495X'
p1272
S'CTNNA1'
p1273
sS'GENE157X'
p1274
S'ADRBK2'
p1275
sS'GENE3176X'
p1276
S'HNMT'
p1277
sS'GENE2721X'
p1278
S'2721'
p1279
sS'GENE3109X'
p1280
S'HLA-DMB'
p1281
sS'GENE3136X'
p1282
S'HLA-H'
p1283
sS'GENE2769X'
p1284
S'GNA15'
p1285
sS'GENE3011X'
p1286
S'3011'
p1287
sS'GENE1555X'
p1288
S'CYP2B6'
p1289
sS'GENE266X'
p1290
S'AMELY'
p1291
sS'GENE729X'
p1292
S'C6'
p1293
sS'GENE2819X'
p1294
S'GPD1'
p1295
sS'GENE2862X'
p1296
S'MLNR'
p1297
sS'GENE1407X'
p1298
S'CRY1'
p1299
sS'GENE537X'
p1300
S'ATP6AP1'
p1301
sS'GENE1482X'
p1302
S'NKX2-5'
p1303
sS'GENE206X'
p1304
S'AK4P1'
p1305
sS'GENE3470X'
p1306
S'IFNWP5'
p1307
sS'GENE3998X'
p1308
S'LMAN1'
p1309
sS'GENE359X'
p1310
S'AQP2'
p1311
sS'GENE2703X'
p1312
S'GJA8'
p1313
sS'GENE3810X'
p1314
S'KIR2DS5'
p1315
sS'GENE3787X'
p1316
S'KCNS1'
p1317
sS'GENE598X'
p1318
S'BCL2L1'
p1319
sS'GENE2888X'
p1320
S'GRB14'
p1321
sS'GENE3538X'
p1322
S'IGLC2'
p1323
sS'GENE1837X'
p1324
S'DTNA'
p1325
sS'GENE3138X'
p1326
S'HLA-K'
p1327
sS'GENE2767X'
p1328
S'GNA11'
p1329
sS'GENE2192X'
p1330
S'FBLN1'
p1331
sS'GENE1252X'
p1332
S'1252'
p1333
sS'GENE3189X'
p1334
S'HNRNPH3'
p1335
sS'GENE2248X'
p1336
S'FGF3'
p1337
sS'GENE3154X'
p1338
S'KRT22'
p1339
sS'GENE2295X'
p1340
S'FOXF2'
p1341
sS'GENE844X'
p1342
S'CASQ1'
p1343
sS'GENE208X'
p1344
S'AKT2'
p1345
sS'GENE3441X'
p1346
S'IFNA4'
p1347
sS'GENE3921X'
p1348
S'RPSA'
p1349
sS'GENE3652X'
p1350
S'IPP'
p1351
sS'GENE1241X'
p1352
S'LTB4R'
p1353
sS'GENE3856X'
p1354
S'KRT8'
p1355
sS'GENE1635X'
p1356
S'DCTD'
p1357
sS'GENE3918X'
p1358
S'LAMC2'
p1359
sS'GENE2441X'
p1360
S'FRA11D'
p1361
sS'GENE308X'
p1362
S'ANXA5'
p1363
sS'GENE221X'
p1364
S'ALDH3B1'
p1365
sS'GENE3836X'
p1366
S'KPNA1'
p1367
sS'GENE3284X'
p1368
S'HSD3B2'
p1369
sS'GENE2113X'
p1370
S'ETS1'
p1371
sS'GENE458X'
p1372
S'ASSP13'
p1373
sS'GENE3863X'
p1374
S'KRT14L1'
p1375
sS'GENE1450X'
p1376
S'1450'
p1377
sS'GENE3542X'
p1378
S'IGLC6'
p1379
sS'GENE3041X'
p1380
S'HBAP1'
p1381
sS'GENE1880X'
p1382
S'GPR183'
p1383
sS'GENE738X'
p1384
S'VPS51'
p1385
sS'GENE2899X'
p1386
S'GRIK3'
p1387
sS'GENE2474X'
p1388
S'FRA22B'
p1389
sS'GENE2569X'
p1390
S'GABRR1'
p1391
sS'GENE2512X'
p1392
S'FTL'
p1393
sS'GENE2946X'
p1394
S'GSTM2'
p1395
sS'GENE1107X'
p1396
S'CHD3'
p1397
sS'GENE561X'
p1398
S'AZF2'
p1399
sS'GENE4004X'
p1400
S'LMO1'
p1401
sS'GENE2222X'
p1402
S'FDFT1'
p1403
sS'GENE2900X'
p1404
S'GRIK4'
p1405
sS'GENE2053X'
p1406
S'EPHX2'
p1407
sS'GENE2884X'
p1408
S'GPX1P2'
p1409
sS'GENE1640X'
p1410
S'1640'
p1411
sS'GENE313X'
p1412
S'AOAH'
p1413
sS'GENE1460X'
p1414
S'CSNK2B'
p1415
sS'GENE109X'
p1416
S'ADCY3'
p1417
sS'GENE3038X'
p1418
S'HAS3'
p1419
sS'GENE420X'
p1420
S'ART4'
p1421
sS'GENE2986X'
p1422
S'GUCY2F'
p1423
sS'GENE1564X'
p1424
S'CYP2D7P1'
p1425
sS'GENE3858X'
p1426
S'KRT10'
p1427
sS'GENE2641X'
p1428
S'GCG'
p1429
sS'GENE2325X'
p1430
S'FMN'
p1431
sS'GENE2523X'
p1432
S'FUT1'
p1433
sS'GENE275X'
p1434
S'AMT'
p1435
sS'GENE3467X'
p1436
S'IFNW1'
p1437
sS'GENE734X'
p1438
S'OSGIN2'
p1439
sS'GENE619X'
p1440
S'BCYRN1P1'
p1441
sS'GENE743X'
p1442
S'C11orf7'
p1443
sS'GENE140X'
p1444
S'ADORA3'
p1445
sS'GENE1601X'
p1446
S'DAB2'
p1447
sS'GENE2750X'
p1448
S'GLUD1P4'
p1449
sS'GENE3116X'
p1450
S'HLA-DPB2'
p1451
sS'GENE2785X'
p1452
S'GNG3'
p1453
sS'GENE1992X'
p1454
S'SERPINB1'
p1455
sS'GENE3430X'
p1456
S'IFI35'
p1457
sS'GENE2463X'
p1458
S'FRA16D'
p1459
sS'GENE40X'
p1460
S'ASIC2'
p1461
sS'GENE2432X'
p1462
S'FRA10B'
p1463
sS'GENE2399X'
p1464
S'FRA5F'
p1465
sS'GENE362X'
p1466
S'AQP5'
p1467
sS'GENE1473X'
p1468
S'CST5'
p1469
sS'GENE2966X'
p1470
S'GTF2H2'
p1471
sS'GENE1823X'
p1472
S'DSC1'
p1473
sS'GENE2991X'
p1474
S'GUSM'
p1475
sS'GENE572X'
p1476
S'BAD'
p1477
sS'GENE2844X'
p1478
S'GPR21'
p1479
sS'GENE3922X'
p1480
S'RPSAP11'
p1481
sS'GENE3803X'
p1482
S'KIR2DL2'
p1483
sS'GENE3874X'
p1484
S'KRT17P2'
p1485
sS'GENE2008X'
p1486
S'ELNR1'
p1487
sS'GENE88X'
p1488
S'ACTN2'
p1489
sS'GENE758X'
p1490
S'MPPED1'
p1491
sS'GENE713X'
p1492
S'C1QB'
p1493
sS'GENE683X'
p1494
S'BST1'
p1495
sS'GENE751X'
p1496
S'C16orf4'
p1497
sS'GENE1572X'
p1498
S'CYP2F1'
p1499
sS'GENE3056X'
p1500
S'HCL1'
p1501
sS'GENE1945X'
p1502
S'EFNA4'
p1503
sS'GENE2624X'
p1504
S'GATA2'
p1505
sS'GENE1439X'
p1506
S'CSF2RB'
p1507
sS'GENE547X'
p1508
S'KIF1A'
p1509
sS'GENE3549X'
p1510
S'IHH'
p1511
sS'GENE1810X'
p1512
S'DR1'
p1513
sS'GENE810X'
p1514
S'CALML3'
p1515
sS'GENE1970X'
p1516
S'1970'
p1517
sS'GENE1065X'
p1518
S'1065'
p1519
sS'GENE3036X'
p1520
S'HAS1'
p1521
sS'GENE1929X'
p1522
S'EEF1AL11'
p1523
sS'GENE2648X'
p1524
S'KAT2A'
p1525
sS'GENE3594X'
p1526
S'IL12RB1'
p1527
sS'GENE2015X'
p1528
S'EMR1'
p1529
sS'GENE298X'
p1530
S'ANTP5'
p1531
sS'GENE3349X'
p1532
S'HTOR'
p1533
sS'GENE3314X'
p1534
S'HSPA8P1'
p1535
sS'GENE2166X'
p1536
S'FAAH'
p1537
sS'GENE1658X'
p1538
S'DDX7'
p1539
sS'GENE3591X'
p1540
S'IL11RB'
p1541
sS'GENE1081X'
p1542
S'CGA'
p1543
sS'GENE1376X'
p1544
S'CPT2'
p1545
sS'GENE3096X'
p1546
S'HIVEP1'
p1547
sS'GENE1580X'
p1548
S'CYP4B1'
p1549
sS'GENE3003X'
p1550
S'GZMK'
p1551
sS'GENE697X'
p1552
S'BTNL1'
p1553
sS'GENE197X'
p1554
S'AHSG'
p1555
sS'GENE2200X'
p1556
S'FBN1'
p1557
sS'GENE3270X'
p1558
S'HRC'
p1559
sS'GENE413X'
p1560
S'ARSC2'
p1561
sS'GENE2590X'
p1562
S'GALNT2'
p1563
sS'GENE1181X'
p1564
S'CLCN2'
p1565
sS'GENE2357X'
p1566
S'FPR1'
p1567
sS'GENE3070X'
p1568
S'HELLS'
p1569
sS'GENE1138X'
p1570
S'CHRNA5'
p1571
sS'GENE287X'
p1572
S'ANK2'
p1573
sS'GENE3406X'
p1574
S'IDDM7'
p1575
sS'GENE2168X'
p1576
S'FABP1'
p1577
sS'GENE1025X'
p1578
S'CDK9'
p1579
sS'GENE1404X'
p1580
S'HAPLN1'
p1581
sS'GENE1167X'
p1582
S'CLA3'
p1583
sS'GENE1798X'
p1584
S'DPAGT1'
p1585
sS'GENE2104X'
p1586
S'ESRRG'
p1587
sS'GENE199X'
p1588
S'AIF1'
p1589
sS'GENE3000X'
p1590
S'GUCY2D'
p1591
sS'GENE2534X'
p1592
S'FYN'
p1593
sS'GENE2231X'
p1594
S'FDX1P1'
p1595
sS'GENE2971X'
p1596
S'GTF3A'
p1597
sS'GENE2062X'
p1598
S'2062'
p1599
sS'GENE1125X'
p1600
S'CHR'
p1601
sS'GENE2334X'
p1602
S'AFF2'
p1603
sS'GENE2017X'
p1604
S'CTTN'
p1605
sS'GENE2680X'
p1606
S'GGT3'
p1607
sS'GENE2948X'
p1608
S'GSTM4'
p1609
sS'GENE3683X'
p1610
S'ITGAL'
p1611
sS'GENE550X'
p1612
S'AUP1'
p1613
sS'GENE1170X'
p1614
S'1170'
p1615
sS'GENE4013X'
p1616
S'VWA5A'
p1617
sS'GENE775X'
p1618
S'CACNA1C'
p1619
sS'GENE3426X'
p1620
S'CFI'
p1621
sS'GENE3203X'
p1622
S'HOXA6'
p1623
sS'GENE950X'
p1624
S'SCARB2'
p1625
sS'GENE699X'
p1626
S'BUB1'
p1627
sS'GENE1393X'
p1628
S'CRHBP'
p1629
sS'GENE4X'
p1630
S'4'
sS'GENE1328X'
p1631
S'COX4I1P1'
p1632
sS'GENE2375X'
p1633
S'FRA2C'
p1634
sS'GENE526X'
p1635
S'ATP6V1B2'
p1636
sS'GENE3602X'
p1637
S'IL15RB'
p1638
sS'GENE2088X'
p1639
S'ERVK3'
p1640
sS'GENE1741X'
p1641
S'DLG3'
p1642
sS'GENE1038X'
p1643
S'CDR1'
p1644
sS'GENE1311X'
p1645
S'COMP'
p1646
sS'GENE3303X'
p1647
S'HSPA1A'
p1648
sS'GENE1694X'
p1649
S'DFNA16'
p1650
sS'GENE3700X'
p1651
S'ITIH4'
p1652
sS'GENE383X'
p1653
S'ARG1'
p1654
sS'GENE3346X'
p1655
S'HTN1'
p1656
sS'GENE2611X'
p1657
S'GAPDHP69'
p1658
sS'GENE998X'
p1659
S'CDC42'
p1660
sS'GENE745X'
p1661
S'MYRF'
p1662
sS'GENE1865X'
p1663
S'DYT6'
p1664
sS'GENE3937X'
p1665
S'LCP2'
p1666
sS'GENE1336X'
p1667
S'COX5BP7'
p1668
sS'GENE896X'
p1669
S'CCND3'
p1670
sS'GENE2001X'
p1671
S'ELF5'
p1672
sS'GENE1257X'
p1673
S'CNC'
p1674
sS'GENE675X'
p1675
S'BRCA2'
p1676
sS'GENE1709X'
p1677
S'DFNB17'
p1678
sS'GENE2319X'
p1679
S'FLOT2'
p1680
sS'GENE506X'
p1681
S'ATP5B'
p1682
sS'GENE3585X'
p1683
S'3585'
p1684
sS'GENE3392X'
p1685
S'ICR5'
p1686
sS'GENE1807X'
p1687
S'DPYS'
p1688
sS'GENE793X'
p1689
S'CALB1'
p1690
sS'GENE3372X'
p1691
S'3372'
p1692
sS'GENE874X'
p1693
S'CBR3'
p1694
sS'GENE137X'
p1695
S'ADORA2BP1'
p1696
sS'GENE2217X'
p1697
S'FCGRT'
p1698
sS'GENE3263X'
p1699
S'HPX'
p1700
sS'GENE934X'
p1701
S'CD24'
p1702
sS'GENE3214X'
p1703
S'HOXB4'
p1704
sS'GENE961X'
p1705
S'CD47'
p1706
sS'GENE3428X'
p1707
S'IFI16'
p1708
sS'GENE858X'
p1709
S'CAV2'
p1710
sS'GENE2146X'
p1711
S'EZH2'
p1712
sS'GENE1003X'
p1713
S'CDH5'
p1714
sS'GENE1907X'
p1715
S'EDN2'
p1716
sS'GENE2666X'
p1717
S'GFI2'
p1718
sS'GENE3726X'
p1719
S'JUNB'
p1720
sS'GENE456X'
p1721
S'ASSP11'
p1722
sS'GENE803X'
p1723
S'CALM2P1'
p1724
sS'GENE1770X'
p1725
S'DNAH9'
p1726
sS'GENE3935X'
p1727
S'LCO'
p1728
sS'GENE3354X'
p1729
S'HTR1E'
p1730
sS'GENE2368X'
p1731
S'FRA1I'
p1732
sS'GENE869X'
p1733
S'CBLN1'
p1734
sS'GENE3705X'
p1735
S'ITPK1'
p1736
sS'GENE1072X'
p1737
S'CFL1'
p1738
sS'GENE3381X'
p1739
S'IBSP'
p1740
sS'GENE2095X'
p1741
S'ERVT5'
p1742
sS'GENE1967X'
p1743
S'EIF2B1'
p1744
sS'GENE3739X'
p1745
S'KCNA4'
p1746
sS'GENE425X'
p1747
S'ARVD4'
p1748
sS'GENE1192X'
p1749
S'CLIC1'
p1750
sS'GENE1726X'
p1751
S'1726'
p1752
sS'GENE918X'
p1753
S'CD3W'
p1754
sS'GENE482X'
p1755
S'ATP1B2'
p1756
sS'GENE3539X'
p1757
S'IGLC3'
p1758
sS'GENE1396X'
p1759
S'CRIP1'
p1760
sS'GENE3139X'
p1761
S'HLA-L'
p1762
sS'GENE508X'
p1763
S'ATP5BL2'
p1764
sS'GENE3635X'
p1765
S'INPP5D'
p1766
sS'GENE3660X'
p1767
S'IRF2'
p1768
sS'GENE1286X'
p1769
S'COL4A4'
p1770
sS'GENE3188X'
p1771
S'HNRNPH2'
p1772
sS'GENE3882X'
p1773
S'KRT32'
p1774
sS'GENE3155X'
p1775
S'HMGCL'
p1776
sS'GENE1208X'
p1777
S'CLPS'
p1778
sS'GENE2719X'
p1779
S'GPC3'
p1780
sS'GENE2296X'
p1781
S'FOXC1'
p1782
sS'GENE311X'
p1783
S'ANXA11'
p1784
sS'GENE3920X'
p1785
S'LAMP2'
p1786
sS'GENE941X'
p1787
S'CD80'
p1788
sS'GENE711X'
p1789
S'ERC2-IT1'
p1790
sS'GENE3446X'
p1791
S'IFNA10'
p1792
sS'GENE3651X'
p1793
S'PDX1'
p1794
sS'GENE1246X'
p1795
S'CMR2A'
p1796
sS'GENE1239X'
p1797
S'1239'
p1798
sS'GENE3919X'
p1799
S'LAMP1P1'
p1800
sS'GENE2191X'
p1801
S'FAP'
p1802
sS'GENE650X'
p1803
S'BMP2'
p1804
sS'GENE2440X'
p1805
S'FRA11C'
p1806
sS'GENE1616X'
p1807
S'DAXX'
p1808
sS'GENE1985X'
p1809
S'EIF5AP1'
p1810
sS'GENE498X'
p1811
S'ATP5A1'
p1812
sS'GENE3285X'
p1813
S'HSD3BP1'
p1814
sS'GENE3835X'
p1815
S'KIF22'
p1816
sS'GENE3026X'
p1817
S'HABP2'
p1818
sS'GENE2138X'
p1819
S'EYA1'
p1820
sS'GENE3142X'
p1821
S'HLX'
p1822
sS'GENE1341X'
p1823
S'COX6BP1'
p1824
sS'GENE2276X'
p1825
S'2276'
p1826
sS'GENE1375X'
p1827
S'CPT1B'
p1828
sS'GENE2281X'
p1829
S'FKBP1B'
p1830
sS'GENE1324X'
p1831
S'CORD7'
p1832
sS'GENE3628X'
p1833
S'INPP1'
p1834
sS'GENE3208X'
p1835
S'HPCA'
p1836
sS'GENE3245X'
p1837
S'HPE2'
p1838
sS'GENE1288X'
p1839
S'COL4A6'
p1840
sS'GENE3764X'
p1841
S'KCNJ8'
p1842
sS'GENE1273X'
p1843
S'CO'
p1844
sS'GENE1849X'
p1845
S'DUSP7'
p1846
sS'GENE3917X'
p1847
S'RPSAP12'
p1848
sS'GENE3673X'
p1849
S'ITGA2'
p1850
sS'GENE563X'
p1851
S'AZGP1'
p1852
sS'GENE1654X'
p1853
S'DDX3X'
p1854
sS'GENE3773X'
p1855
S'KCNJ16'
p1856
sS'GENE1264X'
p1857
S'CNN1'
p1858
sS'GENE3951X'
p1859
S'3951'
p1860
sS'GENE1594X'
p1861
S'CYP27B1'
p1862
sS'GENE1638X'
p1863
S'DCT'
p1864
sS'GENE3195X'
p1865
S'TLX1'
p1866
sS'GENE2002X'
p1867
S'ELK1'
p1868
sS'GENE2256X'
p1869
S'FGF11'
p1870
sS'GENE1373X'
p1871
S'CPS1'
p1872
sS'GENE1714X'
p1873
S'DGCR'
p1874
sS'GENE2433X'
p1875
S'FRA10C'
p1876
sS'GENE2525X'
p1877
S'FUT3'
p1878
sS'GENE1661X'
p1879
S'DHX9P1'
p1880
sS'GENE836X'
p1881
S'CASP3'
p1882
sS'GENE2927X'
p1883
S'GSC'
p1884
sS'GENE2575X'
p1885
S'GAGE3'
p1886
sS'GENE2018X'
p1887
S'EMX2'
p1888
sS'GENE2520X'
p1889
S'GAST'
p1890
sS'GENE733X'
p1891
S'C8G'
p1892
sS'GENE3460X'
p1893
S'IFNGR2'
p1894
sS'GENE1844X'
p1895
S'DUSP2'
p1896
sS'GENE1483X'
p1897
S'CTAA1'
p1898
sS'GENE141X'
p1899
S'ADPRH'
p1900
sS'GENE3117X'
p1901
S'HLA-DQA1'
p1902
sS'GENE3213X'
p1903
S'HOXB3'
p1904
sS'GENE1349X'
p1905
S'COX7B'
p1906
sS'GENE632X'
p1907
S'BGLAP'
p1908
sS'GENE2462X'
p1909
S'FRA16C'
p1910
sS'GENE392X'
p1911
S'ARHGAP1'
p1912
sS'GENE2827X'
p1913
S'GPR3'
p1914
sS'GENE2398X'
p1915
S'FRA5E'
p1916
sS'GENE1472X'
p1917
S'CST4'
p1918
sS'GENE363X'
p1919
S'AQP6'
p1920
sS'GENE1760X'
p1921
S'DMPK'
p1922
sS'GENE50X'
p1923
S'ACO2'
p1924
sS'GENE2967X'
p1925
S'GTF2H3'
p1926
sS'GENE3844X'
p1927
S'KRASP1'
p1928
sS'GENE2990X'
p1929
S'GUSB'
p1930
sS'GENE1383X'
p1931
S'1383'
p1932
sS'GENE3252X'
p1933
S'HPRT2'
p1934
sS'GENE87X'
p1935
S'ACTN1'
p1936
sS'GENE3224X'
p1937
S'HOXC8'
p1938
sS'GENE3570X'
p1939
S'IL6R'
p1940
sS'GENE3187X'
p1941
S'HNRNPH1'
p1942
sS'GENE3108X'
p1943
S'HLA-DMA'
p1944
sS'GENE2047X'
p1945
S'EPHB1'
p1946
sS'GENE2710X'
p1947
S'GK'
p1948
sS'GENE2186X'
p1949
S'BPTF'
p1950
sS'GENE621X'
p1951
S'621'
p1952
sS'GENE720X'
p1953
S'C4A'
p1954
sS'GENE2321X'
p1955
S'FLT1'
p1956
sS'GENE2829X'
p1957
S'XCR1'
p1958
sS'GENE2396X'
p1959
S'FRA5C'
p1960
sS'GENE3748X'
p1961
S'KCNC3'
p1962
sS'GENE3323X'
p1963
S'HSP90AA4P'
p1964
sS'GENE1527X'
p1965
S'TEX28'
p1966
sS'GENE2258X'
p1967
S'FGF13'
p1968
sS'GENE218X'
p1969
S'ALDH3A1'
p1970
sS'GENE1549X'
p1971
S'CYP2A7'
p1972
sS'GENE588X'
p1973
S'BCGF1'
p1974
sS'GENE2805X'
p1975
S'GOT1'
p1976
sS'GENE2850X'
p1977
S'GPR27'
p1978
sS'GENE1494X'
p1979
S'CTM'
p1980
sS'GENE345X'
p1981
S'APOC3'
p1982
sS'GENE3177X'
p1983
S'SLC29A2'
p1984
sS'GENE156X'
p1985
S'ADRBK1'
p1986
sS'GENE3786X'
p1987
S'KCNQ3'
p1988
sS'GENE305X'
p1989
S'ANXA2P3'
p1990
sS'GENE3137X'
p1991
S'HLA-J'
p1992
sS'GENE3813X'
p1993
S'KIR3DS1'
p1994
sS'GENE1583X'
p1995
S'CYP11A1'
p1996
sS'GENE269X'
p1997
S'AMHR2'
p1998
sS'GENE949X'
p1999
S'SCARB1'
p2000
sS'GENE1756X'
p2001
S'DMD'
p2002
sS'GENE2861X'
p2003
S'GPR37'
p2004
sS'GENE1206X'
p2005
S'CLN7'
p2006
sS'GENE761X'
p2007
S'CA3'
p2008
sS'GENE205X'
p2009
S'AK4'
p2010
sS'GENE702X'
p2011
S'BWS'
p2012
sS'GENE1501X'
p2013
S'CTNND2'
p2014
sS'GENE3999X'
p2015
S'LMNB2'
p2016
sS'GENE989X'
p2017
S'SEPT7'
p2018
sS'GENE1360X'
p2019
S'CPB1'
p2020
sS'GENE358X'
p2021
S'AQP1'
p2022
sS'GENE2537X'
p2023
S'IFI6'
p2024
sS'GENE385X'
p2025
S'385'
p2026
sS'GENE3077X'
p2027
S'HFE'
p2028
sS'GENE1139X'
p2029
S'CHRNA7'
p2030
sS'GENE3561X'
p2031
S'IL2RG'
p2032
sS'GENE3407X'
p2033
S'IDDM8'
p2034
sS'GENE286X'
p2035
S'ANK1'
p2036
sS'GENE2169X'
p2037
S'FABP2'
p2038
sS'GENE3982X'
p2039
S'LIM2'
p2040
sS'GENE1405X'
p2041
S'CRTL2'
p2042
sS'GENE404X'
p2043
S'ARMD1'
p2044
sS'GENE2557X'
p2045
S'GABRA4'
p2046
sS'GENE3089X'
p2047
S'3089'
p2048
sS'GENE2050X'
p2049
S'EPHB4'
p2050
sS'GENE1724X'
p2051
S'DHOF'
p2052
sS'GENE1166X'
p2053
S'SCAX1'
p2054
sS'GENE2105X'
p2055
S'2105'
p2056
sS'GENE198X'
p2057
S'AIED'
p2058
sS'GENE2970X'
p2059
S'GTF2IP1'
p2060
sS'GENE2236X'
p2061
S'FECHP1'
p2062
sS'GENE2061X'
p2063
S'EPT'
p2064
sS'GENE1124X'
p2065
S'CHN2'
p2066
sS'GENE1171X'
p2067
S'1171'
p2068
sS'GENE924X'
p2069
S'CD7'
p2070
sS'GENE2949X'
p2071
S'GSTM5'
p2072
sS'GENE3110X'
p2073
S'MNX1'
p2074
sS'GENE2687X'
p2075
S'GGT5'
p2076
sS'GENE3427X'
p2077
S'IFI4'
p2078
sS'GENE4014X'
p2079
S'LOR'
p2080
sS'GENE1106X'
p2081
S'CHD2'
p2082
sS'GENE1523X'
p2083
S'CUX1'
p2084
sS'GENE98X'
p2085
S'ACYP2'
p2086
sS'GENE2112X'
p2087
S'ETM2'
p2088
sS'GENE3583X'
p2089
S'IL9RP2'
p2090
sS'GENE459X'
p2091
S'ASS1P14'
p2092
sS'GENE3864X'
p2093
S'KRT14L2'
p2094
sS'GENE1881X'
p2095
S'EBM'
p2096
sS'GENE3541X'
p2097
S'IGLC5'
p2098
sS'GENE603X'
p2099
S'BCL5'
p2100
sS'GENE2475X'
p2101
S'MTOR'
p2102
sS'GENE2847X'
p2103
S'MCHR1'
p2104
sS'GENE3891X'
p2105
S'KRT85'
p2106
sS'GENE69X'
p2107
S'ACTBP9'
p2108
sS'GENE2947X'
p2109
S'GSTM3'
p2110
sS'GENE2511X'
p2111
S'FTHP3'
p2112
sS'GENE2987X'
p2113
S'GUK1'
p2114
sS'GENE153X'
p2115
S'ADRB1'
p2116
sS'GENE566X'
p2117
S'AZU1'
p2118
sS'GENE834X'
p2119
S'CASP1'
p2120
sS'GENE2901X'
p2121
S'GRIK5'
p2122
sS'GENE2887X'
p2123
S'GRB10'
p2124
sS'GENE1461X'
p2125
S'1461'
p2126
sS'GENE312X'
p2127
S'ANXA13'
p2128
sS'GENE45X'
p2129
S'ACHM3'
p2130
sS'GENE531X'
p2131
S'ATP6V1E1P1'
p2132
sS'GENE3373X'
p2133
S'HYAL1'
p2134
sS'GENE792X'
p2135
S'792'
p2136
sS'GENE875X'
p2137
S'CBS'
p2138
sS'GENE136X'
p2139
S'ADORA2B'
p2140
sS'GENE2210X'
p2141
S'FCGR1B'
p2142
sS'GENE937X'
p2143
S'CD24P3'
p2144
sS'GENE3260X'
p2145
S'HPV18I1'
p2146
sS'GENE3429X'
p2147
S'IFI27'
p2148
sS'GENE2147X'
p2149
S'F2'
p2150
sS'GENE859X'
p2151
S'CAV3'
p2152
sS'GENE1906X'
p2153
S'EDN1'
p2154
sS'GENE2661X'
p2155
S'GDF9'
p2156
sS'GENE3725X'
p2157
S'JUN'
p2158
sS'GENE333X'
p2159
S'APLP1'
p2160
sS'GENE3082X'
p2161
S'HGF'
p2162
sS'GENE669X'
p2163
S'BPGM'
p2164
sS'GENE2369X'
p2165
S'FRA1J'
p2166
sS'GENE3485X'
p2167
S'IGFBP2'
p2168
sS'GENE868X'
p2169
S'CBLB'
p2170
sS'GENE3380X'
p2171
S'IBM3'
p2172
sS'GENE1075X'
p2173
S'CTSC'
p2174
sS'GENE1966X'
p2175
S'1966'
p2176
sS'GENE2580X'
p2177
S'GAK'
p2178
sS'GENE1193X'
p2179
S'CLIC2'
p2180
sS'GENE376X'
p2181
S'ARF2'
p2182
sS'GENE1839X'
p2183
S'HBEGF'
p2184
sS'GENE1759X'
p2185
S'DNM1'
p2186
sS'GENE1537X'
p2187
S'CYC1'
p2188
sS'GENE2421X'
p2189
S'FRA8C'
p2190
sS'GENE2158X'
p2191
S'F9'
p2192
sS'GENE422X'
p2193
S'ARVD1'
p2194
sS'GENE1944X'
p2195
S'EFNA3'
p2196
sS'GENE52X'
p2197
S'ACP1'
p2198
sS'GENE3746X'
p2199
S'KCNC1'
p2200
sS'GENE2627X'
p2201
S'GATA6'
p2202
sS'GENE540X'
p2203
S'ATP7B'
p2204
sS'GENE780X'
p2205
S'DDR1'
p2206
sS'GENE1928X'
p2207
S'EEF1AL10'
p2208
sS'GENE1062X'
p2209
S'CENPE'
p2210
sS'GENE3035X'
p2211
S'HARS'
p2212
sS'GENE3060X'
p2213
S'HCRT'
p2214
sS'GENE1148X'
p2215
S'CHX10'
p2216
sS'GENE2127X'
p2217
S'EVR2'
p2218
sS'GENE299X'
p2219
S'ANTP6'
p2220
sS'GENE2356X'
p2221
S'FPGS'
p2222
sS'GENE2167X'
p2223
S'FABP4'
p2224
sS'GENE3013X'
p2225
S'HIST1H2AD'
p2226
sS'GENE2698X'
p2227
S'GJA1P1'
p2228
sS'GENE1053X'
p2229
S'CEBPE'
p2230
sS'GENE3597X'
p2231
S'IL13RA1'
p2232
sS'GENE1082X'
p2233
S'CGB'
p2234
sS'GENE2658X'
p2235
S'GDF2'
p2236
sS'GENE91X'
p2237
S'ACVR1B'
p2238
sS'GENE196X'
p2239
S'AHR'
p2240
sS'GENE3893X'
p2241
S'KRTL1'
p2242
sS'GENE410X'
p2243
S'ARSA'
p2244
sS'GENE3273X'
p2245
S'HRG'
p2246
sS'GENE2597X'
p2247
S'GAPDH'
p2248
sS'GENE1180X'
p2249
S'CLCN1'
p2250
sS'GENE3672X'
p2251
S'ITGA1'
p2252
sS'GENE3492X'
p2253
S'IGH'
p2254
sS'GENE1454X'
p2255
S'CSNK1E'
p2256
sS'GENE3890X'
p2257
S'KRT84'
p2258
sS'GENE2098X'
p2259
S'ESD'
p2260
sS'GENE979X'
p2261
S'CDAN1'
p2262
sS'GENE1429X'
p2263
S'CRYZ'
p2264
sS'GENE2277X'
p2265
S'FIGF'
p2266
sS'GENE3141X'
p2267
S'HLCS'
p2268
sS'GENE2280X'
p2269
S'FKBP1A'
p2270
sS'GENE1656X'
p2271
S'DDX6'
p2272
sS'GENE1289X'
p2273
S'COL5A1'
p2274
sS'GENE1272X'
p2275
S'CNTN1'
p2276
sS'GENE3710X'
p2277
S'ITPR3'
p2278
sS'GENE940X'
p2279
S'CD28'
p2280
sS'GENE1338X'
p2281
S'COX6A1P1'
p2282
sS'GENE1788X'
p2283
S'DNMT3A'
p2284
sS'GENE1853X'
p2285
S'DUSPP'
p2286
sS'GENE1370X'
p2287
S'CPN2'
p2288
sS'GENE1545X'
p2289
S'CYP1B1'
p2290
sS'GENE1265X'
p2291
S'CNN2'
p2292
sS'GENE3509X'
p2293
S'IGHV@'
p2294
sS'GENE3774X'
p2295
S'KCNJN1'
p2296
sS'GENE3299X'
p2297
S'HSF4'
p2298
sS'GENE3629X'
p2299
S'INPP3'
p2300
sS'GENE760X'
p2301
S'CA2'
p2302
sS'GENE1510X'
p2303
S'CTSE'
p2304
sS'GENE3525X'
p2305
S'IGKV1OR1-1'
p2306
sS'GENE177X'
p2307
S'AGER'
p2308
sS'GENE3196X'
p2309
S'TLX2'
p2310
sS'GENE2257X'
p2311
S'FGF12'
p2312
sS'GENE496X'
p2313
S'ATP4B'
p2314
sS'GENE7X'
p2315
S'7'
sS'GENE2261X'
p2316
S'FGFR3'
p2317
sS'GENE380X'
p2318
S'ARF4P1'
p2319
sS'GENE3251X'
p2320
S'HPRT1'
p2321
sS'GENE485X'
p2322
S'ATP1B1P1'
p2323
sS'GENE3204X'
p2324
S'HOXA7'
p2325
sS'GENE2374X'
p2326
S'FRA2B'
p2327
sS'GENE1775X'
p2328
S'DNASE1L2'
p2329
sS'GENE527X'
p2330
S'ATP6V0C'
p2331
sS'GENE3603X'
p2332
S'IL16'
p2333
sS'GENE2672X'
p2334
S'GFI1'
p2335
sS'GENE3228X'
p2336
S'HOXC12'
p2337
sS'GENE1740X'
p2338
S'DLG2'
p2339
sS'GENE1715X'
p2340
S'DGI1'
p2341
sS'GENE3302X'
p2342
S'HSN1'
p2343
sS'GENE837X'
p2344
S'CASP4'
p2345
sS'GENE1312X'
p2346
S'COMT'
p2347
sS'GENE1445X'
p2348
S'CSK'
p2349
sS'GENE1697X'
p2350
S'DFNB5'
p2351
sS'GENE1971X'
p2352
S'1971'
p2353
sS'GENE444X'
p2354
S'ASPH'
p2355
sS'GENE3219X'
p2356
S'HOXB9'
p2357
sS'GENE997X'
p2358
S'CDC34'
p2359
sS'GENE3484X'
p2360
S'IGFBP1'
p2361
sS'GENE1862X'
p2362
S'DYT2'
p2363
sS'GENE1363X'
p2364
S'CPE'
p2365
sS'GENE908X'
p2366
S'CCT6A'
p2367
sS'GENE2035X'
p2368
S'EPB41'
p2369
sS'GENE2318X'
p2370
S'FLNC'
p2371
sS'GENE507X'
p2372
S'ATP5BP1'
p2373
sS'GENE3393X'
p2374
S'ICS1'
p2375
sS'GENE3507X'
p2376
S'IGHM'
p2377
sS'GENE155X'
p2378
S'ADRB3'
p2379
sS'GENE3174X'
p2380
S'HNF4G'
p2381
sS'GENE2723X'
p2382
S'GLC1C'
p2383
sS'GENE2798X'
p2384
S'GNRHR'
p2385
sS'GENE2187X'
p2386
S'FANCB'
p2387
sS'GENE1608X'
p2388
S'DGKG'
p2389
sS'GENE2120X'
p2390
S'ETV6'
p2391
sS'GENE2828X'
p2392
S'GPR4'
p2393
sS'GENE35X'
p2394
S'ACADS'
p2395
sS'GENE26X'
p2396
S'AOC1'
p2397
sS'GENE2322X'
p2398
S'FLT3'
p2399
sS'GENE1238X'
p2400
S'ACKR2'
p2401
sS'GENE3198X'
p2402
S'HOXA1'
p2403
sS'GENE2259X'
p2404
S'FGF14'
p2405
sS'GENE2606X'
p2406
S'GAPDHL9'
p2407
sS'GENE1548X'
p2408
S'CYP2A6'
p2409
sS'GENE219X'
p2410
S'ALDH1B1'
p2411
sS'GENE2804X'
p2412
S'GOLGB1'
p2413
sS'GENE589X'
p2414
S'BDK'
p2415
sS'GENE2851X'
p2416
S'GPR28'
p2417
sS'GENE154X'
p2418
S'ADRB2'
p2419
sS'GENE3812X'
p2420
S'KIR3DL2'
p2421
sS'GENE3781X'
p2422
S'KCNN2'
p2423
sS'GENE3134X'
p2424
S'HLA-F'
p2425
sS'GENE1582X'
p2426
S'CYP8B1'
p2427
sS'GENE268X'
p2428
S'AMH'
p2429
sS'GENE785X'
p2430
S'CACNB4'
p2431
sS'GENE1602X'
p2432
S'DACH1'
p2433
sS'GENE1207X'
p2434
S'CLNS1A'
p2435
sS'GENE3567X'
p2436
S'IL5'
p2437
sS'GENE476X'
p2438
S'ATP1A1'
p2439
sS'GENE2333X'
p2440
S'2333'
p2441
sS'GENE204X'
p2442
S'AK2'
p2443
sS'GENE1500X'
p2444
S'CTNND1'
p2445
sS'GENE808X'
p2446
S'CALM3'
p2447
sS'GENE2297X'
p2448
S'FOXD1'
p2449
sS'GENE1628X'
p2450
S'DBP'
p2451
sS'GENE3459X'
p2452
S'IFNGR1'
p2453
sS'GENE1595X'
p2454
S'CYP51A1'
p2455
sS'GENE226X'
p2456
S'ALDOA'
p2457
sS'GENE3634X'
p2458
S'INPP5C'
p2459
sS'GENE3952X'
p2460
S'LEP'
p2461
sS'GENE3661X'
p2462
S'IRF3'
p2463
sS'GENE3558X'
p2464
S'IL2'
p2465
sS'GENE3883X'
p2466
S'KRT33A'
p2467
sS'GENE1209X'
p2468
S'CLPTM1'
p2469
sS'GENE2718X'
p2470
S'GLAT'
p2471
sS'GENE3156X'
p2472
S'HMGCR'
p2473
sS'GENE3834X'
p2474
S'KIF25'
p2475
sS'GENE3286X'
p2476
S'HSD3BP2'
p2477
sS'GENE1387X'
p2478
S'CREBBP'
p2479
sS'GENE3447X'
p2480
S'IFNA13'
p2481
sS'GENE3923X'
p2482
S'RPSAP13'
p2483
sS'GENE3650X'
p2484
S'IP2'
p2485
sS'GENE1247X'
p2486
S'CMR3A'
p2487
sS'GENE178X'
p2488
S'AGL'
p2489
sS'GENE2190X'
p2490
S'2190'
p2491
sS'GENE651X'
p2492
S'BMP3'
p2493
sS'GENE1984X'
p2494
S'EIF5A'
p2495
sS'GENE2443X'
p2496
S'FRA11F'
p2497
sS'GENE1611X'
p2498
S'DAP'
p2499
sS'GENE2510X'
p2500
S'FTH1P21'
p2501
sS'GENE3410X'
p2502
S'IDDM11'
p2503
sS'GENE725X'
p2504
S'C4BPB'
p2505
sS'GENE1101X'
p2506
S'CHAD'
p2507
sS'GENE2111X'
p2508
S'ETM1'
p2509
sS'GENE1581X'
p2510
S'CYP7A1'
p2511
sS'GENE3865X'
p2512
S'KRT14L3'
p2513
sS'GENE602X'
p2514
S'BCL3'
p2515
sS'GENE2846X'
p2516
S'LPAR4'
p2517
sS'GENE2476X'
p2518
S'2476'
p2519
sS'GENE2498X'
p2520
S'FTH1P3'
p2521
sS'GENE2679X'
p2522
S'GGT3P'
p2523
sS'GENE882X'
p2524
S'CCAL1'
p2525
sS'GENE2980X'
p2526
S'GUCA2A'
p2527
sS'GENE567X'
p2528
S'B2M'
p2529
sS'GENE3417X'
p2530
S'IDH1'
p2531
sS'GENE3540X'
p2532
S'IGLC4'
p2533
sS'GENE1882X'
p2534
S'1882'
p2535
sS'GENE2886X'
p2536
S'GRB7'
p2537
sS'GENE315X'
p2538
S'AOM'
p2539
sS'GENE1466X'
p2540
S'CSRP2'
p2541
sS'GENE1419X'
p2542
S'CRYGB'
p2543
sS'GENE3983X'
p2544
S'ABLIM1'
p2545
sS'GENE2461X'
p2546
S'FRA16B'
p2547
sS'GENE2434X'
p2548
S'FRA10D'
p2549
sS'GENE1662X'
p2550
S'DDX10'
p2551
sS'GENE19X'
p2552
S'ABCA1'
p2553
sS'GENE2574X'
p2554
S'GAGE2C'
p2555
sS'GENE2924X'
p2556
S'GRP58P'
p2557
sS'GENE2521X'
p2558
S'FUS'
p2559
sS'GENE3461X'
p2560
S'IFNA11P'
p2561
sS'GENE732X'
p2562
S'C8B'
p2563
sS'GENE2860X'
p2564
S'GPR36'
p2565
sS'GENE2418X'
p2566
S'FRA8A'
p2567
sS'GENE1484X'
p2568
S'CTAA2'
p2569
sS'GENE142X'
p2570
S'PARP1'
p2571
sS'GENE2752X'
p2572
S'GLUL'
p2573
sS'GENE3118X'
p2574
S'HLA-DQA2'
p2575
sS'GENE2619X'
p2576
S'GAS1'
p2577
sS'GENE397X'
p2578
S'ARHGDIB'
p2579
sS'GENE633X'
p2580
S'BGN'
p2581
sS'GENE971X'
p2582
S'CD72'
p2583
sS'GENE2826X'
p2584
S'CCR10'
p2585
sS'GENE51X'
p2586
S'ACOX1'
p2587
sS'GENE3469X'
p2588
S'IFNWP4'
p2589
sS'GENE2429X'
p2590
S'FRA9E'
p2591
sS'GENE469X'
p2592
S'ATF4P1'
p2593
sS'GENE1428X'
p2594
S'CRYM'
p2595
sS'GENE2939X'
p2596
S'GSTA2'
p2597
sS'GENE2964X'
p2598
S'GTF2F2P1'
p2599
sS'GENE86X'
p2600
S'ACTL6A'
p2601
sS'GENE681X'
p2602
S'BSCL'
p2603
sS'GENE348X'
p2604
S'APOE'
p2605
sS'GENE1499X'
p2606
S'CTNNB1'
p2607
sS'GENE3801X'
p2608
S'KIFC3'
p2609
sS'GENE3792X'
p2610
S'KEL'
p2611
sS'GENE2558X'
p2612
S'GABRA5'
p2613
sS'GENE1763X'
p2614
S'DNA2'
p2615
sS'GENE748X'
p2616
S'C16orf1'
p2617
sS'GENE2124X'
p2618
S'EVI2B'
p2619
sS'GENE3312X'
p2620
S'HSPA8'
p2621
sS'GENE3058X'
p2622
S'HCL3'
p2623
sS'GENE1947X'
p2624
S'EFNB1'
p2625
sS'GENE2626X'
p2626
S'GATA4'
p2627
sS'GENE541X'
p2628
S'ALDH7A1P1'
p2629
sS'GENE3408X'
p2630
S'IDDM9'
p2631
sS'GENE446X'
p2632
S'ASSP1'
p2633
sS'GENE2011X'
p2634
S'MARK2'
p2635
sS'GENE3034X'
p2636
S'HAL'
p2637
sS'GENE1927X'
p2638
S'EEF1AL9'
p2639
sS'GENE3061X'
p2640
S'HCRTR1'
p2641
sS'GENE1491X'
p2642
S'CTH'
p2643
sS'GENE2643X'
p2644
S'GCH1'
p2645
sS'GENE1794X'
p2646
S'DOCK2'
p2647
sS'GENE2323X'
p2648
S'FLT3LG'
p2649
sS'GENE1183X'
p2650
S'CLCN4'
p2651
sS'GENE2351X'
p2652
S'FOLR2L'
p2653
sS'GENE2164X'
p2654
S'F13A3'
p2655
sS'GENE1029X'
p2656
S'CDKN2A'
p2657
sS'GENE1052X'
p2658
S'CEBPD'
p2659
sS'GENE1083X'
p2660
S'CGF1'
p2661
sS'GENE1938X'
p2662
S'EEF2'
p2663
sS'GENE2659X'
p2664
S'2659'
p2665
sS'GENE2013X'
p2666
S'EMP2'
p2667
sS'GENE816X'
p2668
S'CAMK2B'
p2669
sS'GENE710X'
p2670
S'SERPING1'
p2671
sS'GENE1674X'
p2672
S'DES'
p2673
sS'GENE2744X'
p2674
S'GLS'
p2675
sS'GENE3272X'
p2676
S'HRES1'
p2677
sS'GENE3344X'
p2678
S'FOXN2'
p2679
sS'GENE2596X'
p2680
S'GAP43'
p2681
sS'GENE467X'
p2682
S'ATF3'
p2683
sS'GENE1426X'
p2684
S'1426'
p2685
sS'GENE747X'
p2686
S'DAGLA'
p2687
sS'GENE2536X'
p2688
S'G1P2'
p2689
sS'GENE3076X'
p2690
S'HF2'
p2691
sS'GENE741X'
p2692
S'ZNHIT2'
p2693
sS'GENE285X'
p2694
S'ANGPT2'
p2695
sS'GENE3404X'
p2696
S'IDDM5'
p2697
sS'GENE2556X'
p2698
S'GABRA3'
p2699
sS'GENE2902X'
p2700
S'GRIN1'
p2701
sS'GENE2051X'
p2702
S'EPHB6'
p2703
sS'GENE403X'
p2704
S'ARL3'
p2705
sS'GENE1112X'
p2706
S'FOXN3'
p2707
sS'GENE1165X'
p2708
S'SCAR2'
p2709
sS'GENE2106X'
p2710
S'2106'
p2711
sS'GENE2237X'
p2712
S'FEN1'
p2713
sS'GENE2973X'
p2714
S'GTS'
p2715
sS'GENE2060X'
p2716
S'EPS15'
p2717
sS'GENE1123X'
p2718
S'CHN1'
p2719
sS'GENE1172X'
p2720
S'1172'
p2721
sS'GENE2496X'
p2722
S'FTH1P1'
p2723
sS'GENE407X'
p2724
S'ARR3'
p2725
sS'GENE3048X'
p2726
S'HBG2'
p2727
sS'GENE252X'
p2728
S'ALS2'
p2729
sS'GENE2686X'
p2730
S'GGT7'
p2731
sS'GENE1120X'
p2732
S'CHKB'
p2733
sS'GENE4015X'
p2734
S'LOX'
p2735
sS'GENE122X'
p2736
S'ADFN'
p2737
sS'GENE2068X'
p2738
S'ERCC2'
p2739
sS'GENE2260X'
p2740
S'FGFR1'
p2741
sS'GENE3702X'
p2742
S'ITK'
p2743
sS'GENE381X'
p2744
S'ARF5'
p2745
sS'GENE3205X'
p2746
S'HOXA9'
p2747
sS'GENE680X'
p2748
S'BRS3'
p2749
sS'GENE1506X'
p2750
S'CTRL'
p2751
sS'GENE3975X'
p2752
S'LHX1'
p2753
sS'GENE2373X'
p2754
S'FRA2A'
p2755
sS'GENE524X'
p2756
S'ATP6V1A2'
p2757
sS'GENE705X'
p2758
S'BYSL'
p2759
sS'GENE1912X'
p2760
S'PHC2'
p2761
sS'GENE2673X'
p2762
S'GFPT1'
p2763
sS'GENE1965X'
p2764
S'EIF2S1'
p2765
sS'GENE3229X'
p2766
S'HOXC13'
p2767
sS'GENE1870X'
p2768
S'E2F2'
p2769
sS'GENE1716X'
p2770
S'DGUOK'
p2771
sS'GENE1313X'
p2772
S'COP'
p2773
sS'GENE3305X'
p2774
S'HSPA1L'
p2775
sS'GENE878X'
p2776
S'CCA1'
p2777
sS'GENE3390X'
p2778
S'ICR3'
p2779
sS'GENE1972X'
p2780
S'1972'
p2781
sS'GENE3218X'
p2782
S'HOXB8'
p2783
sS'GENE304X'
p2784
S'ANXA2P2'
p2785
sS'GENE996X'
p2786
S'CDC27'
p2787
sS'GENE1342X'
p2788
S'COX6B1P2'
p2789
sS'GENE3968X'
p2790
S'LGMD1B'
p2791
sS'GENE1796X'
p2792
S'DOK1'
p2793
sS'GENE2539X'
p2794
S'G6PD'
p2795
sS'GENE1677X'
p2796
S'DFFB'
p2797
sS'GENE6X'
p2798
S'6'
sS'GENE3724X'
p2799
S'JTK5B'
p2800
sS'GENE3978X'
p2801
S'LIG1'
p2802
sS'GENE530X'
p2803
S'ATP6V1EL1'
p2804
sS'GENE2336X'
p2805
S'FND'
p2806
sS'GENE1801X'
p2807
S'DPH1'
p2808
sS'GENE3579X'
p2809
S'CXCR2'
p2810
sS'GENE470X'
p2811
S'ATHS'
p2812
sS'GENE876X'
p2813
S'CBX2'
p2814
sS'GENE131X'
p2815
S'ADH7'
p2816
sS'GENE2211X'
p2817
S'FCGR1C'
p2818
sS'GENE1509X'
p2819
S'CTSD'
p2820
sS'GENE779X'
p2821
S'CACNA1S'
p2822
sS'GENE3358X'
p2823
S'HTR2C'
p2824
sS'GENE856X'
p2825
S'CATR1'
p2826
sS'GENE3491X'
p2827
S'CYR61'
p2828
sS'GENE1566X'
p2829
S'1566'
p2830
sS'GENE2660X'
p2831
S'MSTN'
p2832
sS'GENE1949X'
p2833
S'EFNB3'
p2834
sS'GENE3083X'
p2835
S'HGFAC'
p2836
sS'GENE1462X'
p2837
S'VCAN'
p2838
sS'GENE668X'
p2839
S'FOXL2'
p2840
sS'GENE1736X'
p2841
S'DKC1'
p2842
sS'GENE2072X'
p2843
S'ERCC4'
p2844
sS'GENE3482X'
p2845
S'IGF2R'
p2846
sS'GENE1074X'
p2847
S'CFL1P5'
p2848
sS'GENE3383X'
p2849
S'ICAM1'
p2850
sS'GENE3261X'
p2851
S'HPV18I2'
p2852
sS'GENE936X'
p2853
S'CD24P2'
p2854
sS'GENE2581X'
p2855
S'GALC'
p2856
sS'GENE1838X'
p2857
S'DTNB'
p2858
sS'GENE1190X'
p2859
S'CLD'
p2860
sS'GENE1259X'
p2861
S'CNGA1'
p2862
sS'GENE2342X'
p2863
S'FNTB'
p2864
sS'GENE3157X'
p2865
S'HMGCS1'
p2866
sS'GENE672X'
p2867
S'BRCA1'
p2868
sS'GENE2290X'
p2869
S'FOXG1'
p2870
sS'GENE2007X'
p2871
S'ELNL1'
p2872
sS'GENE18X'
p2873
S'ABAT'
p2874
sS'GENE1629X'
p2875
S'DBT'
p2876
sS'GENE3298X'
p2877
S'HSF2'
p2878
sS'GENE3953X'
p2879
S'LEPR'
p2880
sS'GENE1592X'
p2881
S'CYP26A1'
p2882
sS'GENE3637X'
p2883
S'INSAF'
p2884
sS'GENE3880X'
p2885
S'KRT19'
p2886
sS'GENE3287X'
p2887
S'HSD3BP3'
p2888
sS'GENE3833X'
p2889
S'KIFC1'
p2890
sS'GENE232X'
p2891
S'ALDRL1'
p2892
sS'GENE245X'
p2893
S'ALOX12P2'
p2894
sS'GENE3444X'
p2895
S'IFNA7'
p2896
sS'GENE3657X'
p2897
S'3657'
p2898
sS'GENE3018X'
p2899
S'HIST1H2BB'
p2900
sS'GENE1340X'
p2901
S'COX6B1'
p2902
sS'GENE801X'
p2903
S'CALM1'
p2904
sS'GENE652X'
p2905
S'BMP4'
p2906
sS'GENE2442X'
p2907
S'FRA11E'
p2908
sS'GENE1610X'
p2909
S'DAO'
p2910
sS'GENE3356X'
p2911
S'HTR2A'
p2912
sS'GENE1339X'
p2913
S'COX6A2'
p2914
sS'GENE2364X'
p2915
S'FRA1E'
p2916
sS'GENE3675X'
p2917
S'ITGA3'
p2918
sS'GENE2099X'
p2919
S'ESR1'
p2920
sS'GENE978X'
p2921
S'CDA'
p2922
sS'GENE3140X'
p2923
S'MR1'
p2924
sS'GENE2057X'
p2925
S'EPOR'
p2926
sS'GENE2274X'
p2927
S'FHL2'
p2928
sS'GENE1362X'
p2929
S'CPD'
p2930
sS'GENE894X'
p2931
S'CCND2'
p2932
sS'GENE3619X'
p2933
S'INCENP'
p2934
sS'GENE1539X'
p2935
S'CYLC2'
p2936
sS'GENE3711X'
p2937
S'3711'
p2938
sS'GENE3985X'
p2939
S'LIMK2'
p2940
sS'GENE1271X'
p2941
S'CNTFR'
p2942
sS'GENE1721X'
p2943
S'DHFRP2'
p2944
sS'GENE1852X'
p2945
S'DUSP9'
p2946
sS'GENE1371X'
p2947
S'CPOX'
p2948
sS'GENE1822X'
p2949
S'ATN1'
p2950
sS'GENE549X'
p2951
S'AUH'
p2952
sS'GENE3508X'
p2953
S'IGHMBP2'
p2954
sS'GENE3713X'
p2955
S'IVL'
p2956
sS'GENE3775X'
p2957
S'KCNK1'
p2958
sS'GENE815X'
p2959
S'CAMK2A'
p2960
sS'GENE824X'
p2961
S'CAPN2'
p2962
sS'GENE1718X'
p2963
S'DHCR24'
p2964
sS'GENE1323X'
p2965
S'1323'
p2966
sS'GENE408X'
p2967
S'ARRB1'
p2968
sS'GENE3524X'
p2969
S'IGKVOR2@'
p2970
sS'GENE3197X'
p2971
S'HOXA@'
p2972
sS'GENE176X'
p2973
S'ACAN'
p2974
sS'GENE491X'
p2975
S'ATP2B2'
p2976
sS'GENE3971X'
p2977
S'LGMD2H'
p2978
sS'GENE630X'
p2979
S'BFLS'
p2980
sS'GENE2460X'
p2981
S'FRA16A'
p2982
sS'GENE2838X'
p2983
S'GPR15'
p2984
sS'GENE2435X'
p2985
S'FRA10E'
p2986
sS'GENE1663X'
p2987
S'DDX11'
p2988
sS'GENE2925X'
p2989
S'GRPR'
p2990
sS'GENE2577X'
p2991
S'GAGE5'
p2992
sS'GENE3714X'
p2993
S'JAG2'
p2994
sS'GENE2419X'
p2995
S'FRA8B'
p2996
sS'GENE2867X'
p2997
S'FFAR2'
p2998
sS'GENE1485X'
p2999
S'CTAG1B'
p3000
sS'GENE32X'
p3001
S'ACACB'
p3002
sS'GENE143X'
p3003
S'PARP4'
p3004
sS'GENE3119X'
p3005
S'HLA-DQB1'
p3006
sS'GENE2755X'
p3007
S'GLULL3'
p3008
sS'GENE2788X'
p3009
S'GNG7'
p3010
sS'GENE609X'
p3011
S'HCN1'
p3012
sS'GENE2795X'
p3013
S'GNPTA'
p3014
sS'GENE1522X'
p3015
S'CTSZ'
p3016
sS'GENE2623X'
p3017
S'GATA1'
p3018
sS'GENE2825X'
p3019
S'GPR1'
p3020
sS'GENE2428X'
p3021
S'FRA9D'
p3022
sS'GENE2870X'
p3023
S'GRK6'
p3024
sS'GENE2538X'
p3025
S'G6PC'
p3026
sS'GENE468X'
p3027
S'ATF4'
p3028
sS'GENE2938X'
p3029
S'GSTA1'
p3030
sS'GENE214X'
p3031
S'ALCAM'
p3032
sS'GENE85X'
p3033
S'ACTL5'
p3034
sS'GENE731X'
p3035
S'C8A'
p3036
sS'GENE3462X'
p3037
S'IFNA12P'
p3038
sS'GENE1498X'
p3039
S'CTNNA1P1'
p3040
sS'GENE349X'
p3041
S'APOEL1'
p3042
sS'GENE3793X'
p3043
S'KFM'
p3044
sS'GENE332X'
p3045
S'BIRC5'
p3046
sS'GENE3806X'
p3047
S'KIR2DS1'
p3048
sS'GENE3879X'
p3049
S'KRT18P1'
p3050
sS'GENE447X'
p3051
S'ASS1P2'
p3052
sS'GENE3506X'
p3053
S'IGHJ@'
p3054
sS'GENE512X'
p3055
S'512'
p3056
sS'GENE3175X'
p3057
S'ONECUT1'
p3058
sS'GENE2483X'
p3059
S'FRG1'
p3060
sS'GENE21X'
p3061
S'ABCA3'
p3062
sS'GENE2180X'
p3063
S'ACSL1'
p3064
sS'GENE623X'
p3065
S'BDKRB1'
p3066
sS'GENE1291X'
p3067
S'COL6A1'
p3068
sS'GENE3199X'
p3069
S'HOXA2'
p3070
sS'GENE1244X'
p3071
S'ABCC2'
p3072
sS'GENE926X'
p3073
S'CD8B'
p3074
sS'GENE2708X'
p3075
S'GJB4'
p3076
sS'GENE2773X'
p3077
S'GNAI3'
p3078
sS'GENE1627X'
p3079
S'DBN1'
p3080
sS'GENE740X'
p3081
S'MRPL49'
p3082
sS'GENE2807X'
p3083
S'GOT2L1'
p3084
sS'GENE593X'
p3085
S'BCKDHA'
p3086
sS'GENE3640X'
p3087
S'INSL3'
p3088
sS'GENE3435X'
p3089
S'3435'
p3090
sS'GENE3780X'
p3091
S'KCNN1'
p3092
sS'GENE303X'
p3093
S'ANXA2P1'
p3094
sS'GENE3135X'
p3095
S'HLA-G'
p3096
sS'GENE1228X'
p3097
S'CMH3'
p3098
sS'GENE1330X'
p3099
S'COX5BP1'
p3100
sS'GENE1585X'
p3101
S'CYP11B2'
p3102
sS'GENE1558X'
p3103
S'CYP2C8'
p3104
sS'GENE2451X'
p3105
S'FRA12D'
p3106
sS'GENE1603X'
p3107
S'DAD1'
p3108
sS'GENE3566X'
p3109
S'IL4R'
p3110
sS'GENE1204X'
p3111
S'CLNS1AP1'
p3112
sS'GENE3824X'
p3113
S'KLRD1'
p3114
sS'GENE203X'
p3115
S'AK1'
p3116
sS'GENE700X'
p3117
S'BVR1'
p3118
sS'GENE1503X'
p3119
S'CTPS1'
p3120
sS'GENE2107X'
p3121
S'ETF1'
p3122
sS'GENE1757X'
p3123
S'SARDH'
p3124
sS'GENE1427X'
p3125
S'CRYGS'
p3126
sS'GENE466X'
p3127
S'ATF1'
p3128
sS'GENE3550X'
p3129
S'IK'
p3130
sS'GENE3075X'
p3131
S'CFH'
p3132
sS'GENE579X'
p3133
S'NKX3-2'
p3134
sS'GENE3254X'
p3135
S'HPRTP2'
p3136
sS'GENE2903X'
p3137
S'GRIN2A'
p3138
sS'GENE227X'
p3139
S'ALDOAP1'
p3140
sS'GENE2555X'
p3141
S'GABRA2'
p3142
sS'GENE2500X'
p3143
S'FTH1P7'
p3144
sS'GENE1113X'
p3145
S'CHGA'
p3146
sS'GENE1164X'
p3147
S'CKS2'
p3148
sS'GENE2517X'
p3149
S'FUCA1'
p3150
sS'GENE2716X'
p3151
S'GK4P'
p3152
sS'GENE4016X'
p3153
S'LOXL1'
p3154
sS'GENE726X'
p3155
S'CAPN5'
p3156
sS'GENE2972X'
p3157
S'BRF1'
p3158
sS'GENE2234X'
p3159
S'FEB2'
p3160
sS'GENE2067X'
p3161
S'ERCC1'
p3162
sS'GENE1122X'
p3163
S'CHML'
p3164
sS'GENE3405X'
p3165
S'IDDM6'
p3166
sS'GENE2892X'
p3167
S'GRIA3'
p3168
sS'GENE2497X'
p3169
S'FTH1P2'
p3170
sS'GENE657X'
p3171
S'BMPR1A'
p3172
sS'GENE406X'
p3173
S'ARNTL'
p3174
sS'GENE1987X'
p3175
S'EIF5AP3'
p3176
sS'GENE913X'
p3177
S'CD1E'
p3178
sS'GENE2685X'
p3179
S'GGTL2'
p3180
sS'GENE3846X'
p3181
S'KRTAP5-9'
p3182
sS'GENE2045X'
p3183
S'EPHA7'
p3184
sS'GENE1100X'
p3185
S'CHAC'
p3186
sS'GENE3413X'
p3187
S'IDDM14'
p3188
sS'GENE2059X'
p3189
S'EPS8'
p3190
sS'GENE174X'
p3191
S'AFP'
p3192
sS'GENE2110X'
p3193
S'ETFDH'
p3194
sS'GENE2965X'
p3195
S'GTF2H1'
p3196
sS'GENE82X'
p3197
S'ACTG1P9'
p3198
sS'GENE2029X'
p3199
S'ENSA'
p3200
sS'GENE601X'
p3201
S'BAK1P2'
p3202
sS'GENE2477X'
p3203
S'FRAXA'
p3204
sS'GENE2849X'
p3205
S'GPR26'
p3206
sS'GENE2499X'
p3207
S'FTH1P4'
p3208
sS'GENE1633X'
p3209
S'DCK'
p3210
sS'GENE1418X'
p3211
S'CRYGA'
p3212
sS'GENE1800X'
p3213
S'DPEP1'
p3214
sS'GENE2704X'
p3215
S'GJAL'
p3216
sS'GENE2981X'
p3217
S'GUCA2B'
p3218
sS'GENE564X'
p3219
S'AZGP1P1'
p3220
sS'GENE3699X'
p3221
S'ITIH3'
p3222
sS'GENE4009X'
p3223
S'LMX1A'
p3224
sS'GENE1722X'
p3225
S'DHFRP4'
p3226
sS'GENE3866X'
p3227
S'KRT15'
p3228
sS'GENE1883X'
p3229
S'1883'
p3230
sS'GENE2548X'
p3231
S'GAA'
p3232
sS'GENE782X'
p3233
S'CACNB1'
p3234
sS'GENE1626X'
p3235
S'DBIL4'
p3236
sS'GENE2881X'
p3237
S'GPX6'
p3238
sS'GENE1467X'
p3239
S'CSRP2P'
p3240
sS'GENE314X'
p3241
S'AOC2'
p3242
sS'GENE2663X'
p3243
S'GDH'
p3244
sS'GENE3723X'
p3245
S'3723'
p3246
sS'GENE533X'
p3247
S'ATP6V0B'
p3248
sS'GENE1623X'
p3249
S'DBIP2'
p3250
sS'GENE1802X'
p3251
S'DPH2'
p3252
sS'GENE877X'
p3253
S'877'
p3254
sS'GENE1321X'
p3255
S'CORD4'
p3256
sS'GENE3024X'
p3257
S'HIST1H1A'
p3258
sS'GENE3093X'
p3259
S'UBE2K'
p3260
sS'GENE3516X'
p3261
S'RBPJ'
p3262
sS'GENE3359X'
p3263
S'HTR3A'
p3264
sS'GENE778X'
p3265
S'CACNA1F'
p3266
sS'GENE2149X'
p3267
S'F2R'
p3268
sS'GENE857X'
p3269
S'CAV1'
p3270
sS'GENE13X'
p3271
S'AADAC'
p3272
sS'GENE1900X'
p3273
S'1900'
p3274
sS'GENE453X'
p3275
S'ASS1P8'
p3276
sS'GENE1017X'
p3277
S'CDK2'
p3278
sS'GENE1948X'
p3279
S'EFNB2'
p3280
sS'GENE3080X'
p3281
S'CFHR2'
p3282
sS'GENE1737X'
p3283
S'DLAT'
p3284
sS'GENE3483X'
p3285
S'IGFALS'
p3286
sS'GENE2212X'
p3287
S'FCGR2A'
p3288
sS'GENE931X'
p3289
S'MS4A1'
p3290
sS'GENE3266X'
p3291
S'ERAS'
p3292
sS'GENE2582X'
p3293
S'GALE'
p3294
sS'GENE1191X'
p3295
S'CLU'
p3296
sS'GENE2343X'
p3297
S'FNTBL1'
p3298
sS'GENE1389X'
p3299
S'CREBL2'
p3300
sS'GENE3697X'
p3301
S'ITIH1'
p3302
sS'GENE2032X'
p3303
S'ENUR2'
p3304
sS'GENE2125X'
p3305
S'EVPL'
p3306
sS'GENE749X'
p3307
S'C16orf2'
p3308
sS'GENE3313X'
p3309
S'HSPA9'
p3310
sS'GENE1019X'
p3311
S'CDK4'
p3312
sS'GENE1946X'
p3313
S'EFNA5'
p3314
sS'GENE2229X'
p3315
S'FDPSP5'
p3316
sS'GENE2692X'
p3317
S'GHRHR'
p3318
sS'GENE1173X'
p3319
S'AP2M1'
p3320
sS'GENE1379X'
p3321
S'CR1L'
p3322
sS'GENE1478X'
p3323
S'CSTF2'
p3324
sS'GENE189X'
p3325
S'AGXT'
p3326
sS'GENE953X'
p3327
S'ENTPD1'
p3328
sS'GENE1035X'
p3329
S'1035'
p3330
sS'GENE1926X'
p3331
S'EEF1A1P10'
p3332
sS'GENE1060X'
p3333
S'CENPC'
p3334
sS'GENE3033X'
p3335
S'HADH'
p3336
sS'GENE3062X'
p3337
S'HCRTR2'
p3338
sS'GENE2070X'
p3339
S'EYA4'
p3340
sS'GENE1135X'
p3341
S'CHRNA2'
p3342
sS'GENE2595X'
p3343
S'GANC'
p3344
sS'GENE1182X'
p3345
S'CLCN3'
p3346
sS'GENE2350X'
p3347
S'FOLR2'
p3348
sS'GENE2165X'
p3349
S'F13B'
p3350
sS'GENE1939X'
p3351
S'EIF2D'
p3352
sS'GENE1051X'
p3353
S'CEBPB'
p3354
sS'GENE2889X'
p3355
S'RAPGEF1'
p3356
sS'GENE542X'
p3357
S'ALDH7A1P2'
p3358
sS'GENE628X'
p3359
S'628'
p3360
sS'GENE817X'
p3361
S'CAMK2D'
p3362
sS'GENE194X'
p3363
S'AHRR'
p3364
sS'GENE891X'
p3365
S'CCNB1'
p3366
sS'GENE665X'
p3367
S'BNIP3L'
p3368
sS'GENE2365X'
p3369
S'FRA1F'
p3370
sS'GENE3674X'
p3371
S'ITGA2B'
p3372
sS'GENE2753X'
p3373
S'GLULP1'
p3374
sS'GENE3892X'
p3375
S'KRT86'
p3376
sS'GENE115X'
p3377
S'ADCY9'
p3378
sS'GENE1835X'
p3379
S'DSS'
p3380
sS'GENE840X'
p3381
S'CASP7'
p3382
sS'GENE3618X'
p3383
S'3618'
p3384
sS'GENE1365X'
p3385
S'CLDN3'
p3386
sS'GENE2423X'
p3387
S'FRA8E'
p3388
sS'GENE1682X'
p3389
S'DFN6'
p3390
sS'GENE1287X'
p3391
S'COL4A5'
p3392
sS'GENE14X'
p3393
S'AAMP'
p3394
sS'GENE1270X'
p3395
S'CNTF'
p3396
sS'GENE3240X'
p3397
S'HP'
p3398
sS'GENE942X'
p3399
S'CD86'
p3400
sS'GENE3769X'
p3401
S'KCNJ13'
p3402
sS'GENE489X'
p3403
S'ATP2A3'
p3404
sS'GENE3756X'
p3405
S'KCNH1'
p3406
sS'GENE1720X'
p3407
S'1720'
p3408
sS'GENE47X'
p3409
S'ACLY'
p3410
sS'GENE3243X'
p3411
S'3243'
p3412
sS'GENE3216X'
p3413
S'HOXB6'
p3414
sS'GENE1851X'
p3415
S'DUSP8P1'
p3416
sS'GENE1804X'
p3417
S'DPP6'
p3418
sS'GENE3903X'
p3419
S'LAIR1'
p3420
sS'GENE2275X'
p3421
S'FHL3'
p3422
sS'GENE1719X'
p3423
S'DHFR'
p3424
sS'GENE2482X'
p3425
S'FRAXF'
p3426
sS'GENE121X'
p3427
S'121'
p3428
sS'GENE3547X'
p3429
S'IGSF1'
p3430
sS'GENE123X'
p3431
S'PLIN2'
p3432
sS'GENE1691X'
p3433
S'1691'
p3434
sS'GENE2263X'
p3435
S'FGFR2'
p3436
sS'GENE430X'
p3437
S'ASCL2'
p3438
sS'GENE3962X'
p3439
S'LGALS6'
p3440
sS'GENE487X'
p3441
S'ATP2A1'
p3442
sS'GENE3758X'
p3443
S'KCNJ1'
p3444
sS'GENE1552X'
p3445
S'CYP2A7P2'
p3446
sS'GENE2372X'
p3447
S'FRA1M'
p3448
sS'GENE1088X'
p3449
S'CEACAM8'
p3450
sS'GENE3382X'
p3451
S'ICA1'
p3452
sS'GENE1913X'
p3453
S'EEC1'
p3454
sS'GENE1077X'
p3455
S'CFLP3'
p3456
sS'GENE1964X'
p3457
S'EIF1AX'
p3458
sS'GENE920X'
p3459
S'CD4'
p3460
sS'GENE2670X'
p3461
S'GFAP'
p3462
sS'GENE3226X'
p3463
S'HOXC10'
p3464
sS'GENE1717X'
p3465
S'DHCR7'
p3466
sS'GENE3304X'
p3467
S'HSPA1B'
p3468
sS'GENE831X'
p3469
S'CAST'
p3470
sS'GENE1309X'
p3471
S'1309'
p3472
sS'GENE3391X'
p3473
S'ICR4'
p3474
sS'GENE1973X'
p3475
S'EIF4A1'
p3476
sS'GENE3005X'
p3477
S'H1F0'
p3478
sS'GENE2614X'
p3479
S'GAPDHL17'
p3480
sS'GENE995X'
p3481
S'CDC25C'
p3482
sS'GENE525X'
p3483
S'ATP6V1B1'
p3484
sS'GENE1819X'
p3485
S'DRG2'
p3486
sS'GENE2085X'
p3487
S'ERV1'
p3488
sS'GENE1X'
p3489
S'A1BG'
p3490
sS'GENE678X'
p3491
S'ZFP36L2'
p3492
sS'GENE2806X'
p3493
S'GOT2'
p3494
sS'GENE2308X'
p3495
S'FOXO1'
p3496
sS'GENE3624X'
p3497
S'INHBA'
p3498
sS'GENE3505X'
p3499
S'IGHGP'
p3500
sS'GENE20X'
p3501
S'ABCA2'
p3502
sS'GENE493X'
p3503
S'ATP2B4'
p3504
sS'GENE2181X'
p3505
S'ACSL3'
p3506
sS'GENE1290X'
p3507
S'COL5A2'
p3508
sS'GENE1245X'
p3509
S'CMR1A'
p3510
sS'GENE2709X'
p3511
S'GJB5'
p3512
sS'GENE3121X'
p3513
S'HLA-DQB3'
p3514
sS'GENE2772X'
p3515
S'GNAI2P1'
p3516
sS'GENE1468X'
p3517
S'SLC25A10'
p3518
sS'GENE1502X'
p3519
S'CTNNG'
p3520
sS'GENE701X'
p3521
S'BUB1B'
p3522
sS'GENE3641X'
p3523
S'INSL4'
p3524
sS'GENE592X'
p3525
S'BCHEL3'
p3526
sS'GENE1777X'
p3527
S'DNASE2'
p3528
sS'GENE355X'
p3529
S'FAS'
p3530
sS'GENE791X'
p3531
S'791'
p3532
sS'GENE300X'
p3533
S'ANTP7'
p3534
sS'GENE3783X'
p3535
S'KCNN4'
p3536
sS'GENE3849X'
p3537
S'KRT2'
p3538
sS'GENE3132X'
p3539
S'HLA-DRB9'
p3540
sS'GENE1584X'
p3541
S'CYP11B1'
p3542
sS'GENE2676X'
p3543
S'GFRA3'
p3544
sS'GENE1350X'
p3545
S'COX7C'
p3546
sS'GENE2456X'
p3547
S'FRA13D'
p3548
sS'GENE1600X'
p3549
S'DAB1'
p3550
sS'GENE1205X'
p3551
S'CLN6'
p3552
sS'GENE3569X'
p3553
S'IL6'
p3554
sS'GENE3825X'
p3555
S'KLRE1'
p3556
sS'GENE3736X'
p3557
S'KCNA1'
p3558
sS'GENE202X'
p3559
S'AIM1'
p3560
sS'GENE3881X'
p3561
S'KRT31'
p3562
sS'GENE3150X'
p3563
S'HMGN1'
p3564
sS'GENE2291X'
p3565
S'FOXG1'
p3566
sS'GENE3338X'
p3567
S'DNAJC4'
p3568
sS'GENE3733X'
p3569
S'KAL3'
p3570
sS'GENE3800X'
p3571
S'KIF5C'
p3572
sS'GENE1675X'
p3573
S'CFD'
p3574
sS'GENE904X'
p3575
S'CCNT1'
p3576
sS'GENE3231X'
p3577
S'HOXD1'
p3578
sS'GENE3776X'
p3579
S'KCNK2'
p3580
sS'GENE1593X'
p3581
S'CYP27A1'
p3582
sS'GENE220X'
p3583
S'ALDH1A3'
p3584
sS'GENE3636X'
p3585
S'INPPL1'
p3586
sS'GENE130X'
p3587
S'ADH6'
p3588
sS'GENE1028X'
p3589
S'CDKN1C'
p3590
sS'GENE1986X'
p3591
S'EIF5AP2'
p3592
sS'GENE2559X'
p3593
S'GABRA6'
p3594
sS'GENE3518X'
p3595
S'RBPJP2'
p3596
sS'GENE3832X'
p3597
S'KIF11'
p3598
sS'GENE3288X'
p3599
S'HSD3BP4'
p3600
sS'GENE233X'
p3601
S'ALDRL2'
p3602
sS'GENE3445X'
p3603
S'IFNA8'
p3604
sS'GENE244X'
p3605
S'ANXA8L2'
p3606
sS'GENE3656X'
p3607
S'IRAK2'
p3608
sS'GENE3318X'
p3609
S'HSPBL2'
p3610
sS'GENE450X'
p3611
S'ASS1P5'
p3612
sS'GENE973X'
p3613
S'CD79A'
p3614
sS'GENE247X'
p3615
S'ALOX15B'
p3616
sS'GENE1799X'
p3617
S'1799'
p3618
sS'GENE653X'
p3619
S'BMP5'
p3620
sS'GENE3847X'
p3621
S'KRN1L'
p3622
sS'GENE2044X'
p3623
S'EPHA5'
p3624
sS'GENE1520X'
p3625
S'CTSS'
p3626
sS'GENE727X'
p3627
S'C5'
p3628
sS'GENE1103X'
p3629
S'CHAT'
p3630
sS'GENE2645X'
p3631
S'GCK'
p3632
sS'GENE2722X'
p3633
S'GLC1B'
p3634
sS'GENE2028X'
p3635
S'ENPEP'
p3636
sS'GENE2962X'
p3637
S'GTF2F1'
p3638
sS'GENE600X'
p3639
S'BAK1P1'
p3640
sS'GENE2848X'
p3641
S'GPR25'
p3642
sS'GENE1712X'
p3643
S'DFNB19'
p3644
sS'GENE3490X'
p3645
S'IGFBP7'
p3646
sS'GENE53X'
p3647
S'ACP2'
p3648
sS'GENE2799X'
p3649
S'GNS'
p3650
sS'GENE2386X'
p3651
S'FRA3C'
p3652
sS'GENE317X'
p3653
S'APAF1'
p3654
sS'GENE1464X'
p3655
S'CSPG4'
p3656
sS'GENE478X'
p3657
S'ATP1A3'
p3658
sS'GENE3599X'
p3659
S'IL14'
p3660
sS'GENE2928X'
p3661
S'GSC2'
p3662
sS'GENE2953X'
p3663
S'GSTT2'
p3664
sS'GENE2982X'
p3665
S'GUCY1A3'
p3666
sS'GENE3698X'
p3667
S'ITIH2'
p3668
sS'GENE565X'
p3669
S'AZGP1P2'
p3670
sS'GENE377X'
p3671
S'ARF3'
p3672
sS'GENE37X'
p3673
S'ACADVL'
p3674
sS'GENE3867X'
p3675
S'KRT15L'
p3676
sS'GENE2549X'
p3677
S'GAB1'
p3678
sS'GENE3X'
p3679
S'A2MP1'
p3680
sS'GENE1767X'
p3681
S'DNAH5'
p3682
sS'GENE1508X'
p3683
S'CTSB'
p3684
sS'GENE2453X'
p3685
S'FRA13A'
p3686
sS'GENE2880X'
p3687
S'GPX5'
p3688
sS'GENE2789X'
p3689
S'GNG5P1'
p3690
sS'GENE631X'
p3691
S'BFSP1'
p3692
sS'GENE2839X'
p3693
S'TBX7'
p3694
sS'GENE3981X'
p3695
S'LIG4'
p3696
sS'GENE2424X'
p3697
S'FRA8F'
p3698
sS'GENE2436X'
p3699
S'FRA10F'
p3700
sS'GENE1664X'
p3701
S'DDX12'
p3702
sS'GENE1559X'
p3703
S'CYP2C9'
p3704
sS'GENE44X'
p3705
S'44'
p3706
sS'GENE33X'
p3707
S'ACADL'
p3708
sS'GENE3564X'
p3709
S'3564'
p3710
sS'GENE2866X'
p3711
S'GPR42'
p3712
sS'GENE2339X'
p3713
S'FNTA'
p3714
sS'GENE2416X'
p3715
S'FRA7I'
p3716
sS'GENE379X'
p3717
S'ARL4D'
p3718
sS'GENE1486X'
p3719
S'CTBS'
p3720
sS'GENE144X'
p3721
S'PARP1P1'
p3722
sS'GENE2754X'
p3723
S'GLULP2'
p3724
sS'GENE16X'
p3725
S'AARS'
p3726
sS'GENE3878X'
p3727
S'KRT18P14'
p3728
sS'GENE3103X'
p3729
S'HKR2'
p3730
sS'GENE2794X'
p3731
S'GNL1'
p3732
sS'GENE27X'
p3733
S'ABL2'
p3734
sS'GENE2824X'
p3735
S'GPM6B'
p3736
sS'GENE278X'
p3737
S'AMY1C'
p3738
sS'GENE2871X'
p3739
S'GRK6P1'
p3740
sS'GENE3329X'
p3741
S'HSPD1'
p3742
sS'GENE84X'
p3743
S'ACTL4'
p3744
sS'GENE2576X'
p3745
S'GAGE4'
p3746
sS'GENE1544X'
p3747
S'CYP1A2'
p3748
sS'GENE215X'
p3749
S'ABCD1'
p3750
sS'GENE3463X'
p3751
S'IFNA20P'
p3752
sS'GENE730X'
p3753
S'C7'
p3754
sS'GENE2742X'
p3755
S'GLRA2'
p3756
sS'GENE1332X'
p3757
S'COX5BP3'
p3758
sS'GENE3807X'
p3759
S'KIR2DS2'
p3760
sS'GENE3790X'
p3761
S'KCNS3'
p3762
sS'GENE3063X'
p3763
S'HCVS'
p3764
sS'GENE3696X'
p3765
S'ITGB8'
p3766
sS'GENE3818X'
p3767
S'KLKB1'
p3768
sS'GENE3588X'
p3769
S'IL10RB'
p3770
sS'GENE294X'
p3771
S'ANTP1'
p3772
sS'GENE3345X'
p3773
S'HTLVR'
p3774
sS'GENE3310X'
p3775
S'HSPA6'
p3776
sS'GENE1018X'
p3777
S'CDK3'
p3778
sS'GENE1782X'
p3779
S'1782'
p3780
sS'GENE2228X'
p3781
S'FDPSP4'
p3782
sS'GENE1121X'
p3783
S'CHM'
p3784
sS'GENE1174X'
p3785
S'AP1S1'
p3786
sS'GENE2171X'
p3787
S'FABP5'
p3788
sS'GENE1034X'
p3789
S'CDL1'
p3790
sS'GENE1061X'
p3791
S'CENPCP1'
p3792
sS'GENE1588X'
p3793
S'CYP19A1'
p3794
sS'GENE3032X'
p3795
S'HADHB'
p3796
sS'GENE1925X'
p3797
S'EEF1AL7'
p3798
sS'GENE2071X'
p3799
S'ERCC3'
p3800
sS'GENE2594X'
p3801
S'GANAB'
p3802
sS'GENE1136X'
p3803
S'CHRNA3'
p3804
sS'GENE2353X'
p3805
S'FOS'
p3806
sS'GENE2162X'
p3807
S'F13A1'
p3808
sS'GENE2693X'
p3809
S'GHSR'
p3810
sS'GENE1099X'
p3811
S'CGN1'
p3812
sS'GENE543X'
p3813
S'ALDH7A1P3'
p3814
sS'GENE1169X'
p3815
S'1169'
p3816
sS'GENE390X'
p3817
S'RND3'
p3818
sS'GENE427X'
p3819
S'ASAH1'
p3820
sS'GENE814X'
p3821
S'CAMK4'
p3822
sS'GENE3369X'
p3823
S'HVBS7'
p3824
sS'GENE193X'
p3825
S'AHDS'
p3826
sS'GENE1221X'
p3827
S'CMD1E'
p3828
sS'GENE76X'
p3829
S'ACTG1P4'
p3830
sS'GENE1143X'
p3831
S'CHRNB4'
p3832
sS'GENE2100X'
p3833
S'ESR2'
p3834
sS'GENE465X'
p3835
S'ATD'
p3836
sS'GENE1424X'
p3837
S'CRYGGP'
p3838
sS'GENE3551X'
p3839
S'IKBKB'
p3840
sS'GENE3074X'
p3841
S'HEXB'
p3842
sS'GENE578X'
p3843
S'BAK1'
p3844
sS'GENE4008X'
p3845
S'LMO7'
p3846
sS'GENE2401X'
p3847
S'FRA6A'
p3848
sS'GENE1226X'
p3849
S'1226'
p3850
sS'GENE253X'
p3851
S'ALS3'
p3852
sS'GENE976X'
p3853
S'CD97'
p3854
sS'GENE2554X'
p3855
S'GABRA1'
p3856
sS'GENE77X'
p3857
S'ACTBP12'
p3858
sS'GENE2501X'
p3859
S'FTH1P8'
p3860
sS'GENE1085X'
p3861
S'CEACAMP5'
p3862
sS'GENE1110X'
p3863
S'CHE2'
p3864
sS'GENE1158X'
p3865
S'CKM'
p3866
sS'GENE4017X'
p3867
S'LOXL2'
p3868
sS'GENE1574X'
p3869
S'CYP3A'
p3870
sS'GENE2235X'
p3871
S'FECH'
p3872
sS'GENE2975X'
p3873
S'GTF3C1'
p3874
sS'GENE2066X'
p3875
S'ERBB4'
p3876
sS'GENE389X'
p3877
S'RHOC'
p3878
sS'GENE2893X'
p3879
S'GRIA4'
p3880
sS'GENE283X'
p3881
S'ANG'
p3882
sS'GENE2139X'
p3883
S'EYA2'
p3884
sS'GENE2494X'
p3885
S'NR5A2'
p3886
sS'GENE409X'
p3887
S'ARRB2'
p3888
sS'GENE1408X'
p3889
S'CRY2'
p3890
sS'GENE2684X'
p3891
S'GGTL1'
p3892
sS'GENE443X'
p3893
S'ASPA'
p3894
sS'GENE1872X'
p3895
S'E2F3P1'
p3896
sS'GENE401X'
p3897
S'PHOX2A'
p3898
sS'GENE832X'
p3899
S'CAPZB'
p3900
sS'GENE3307X'
p3901
S'HSPA3'
p3902
sS'GENE889X'
p3903
S'KRIT1'
p3904
sS'GENE120X'
p3905
S'ADD3'
p3906
sS'GENE2262X'
p3907
S'GPC5'
p3908
sS'GENE431X'
p3909
S'ASD1'
p3910
sS'GENE3759X'
p3911
S'KCNJ2'
p3912
sS'GENE486X'
p3913
S'FXYD2'
p3914
sS'GENE1378X'
p3915
S'CR1'
p3916
sS'GENE768X'
p3917
S'CA9'
p3918
sS'GENE3367X'
p3919
S'HVBS4'
p3920
sS'GENE763X'
p3921
S'CA5A'
p3922
sS'GENE3480X'
p3923
S'IGF1R'
p3924
sS'GENE1076X'
p3925
S'CFLL2'
p3926
sS'GENE3385X'
p3927
S'ICAM3'
p3928
sS'GENE1910X'
p3929
S'EDNRB'
p3930
sS'GENE2671X'
p3931
S'GFER'
p3932
sS'GENE3227X'
p3933
S'HOXC11'
p3934
sS'GENE679X'
p3935
S'BRRN1'
p3936
sS'GENE1308X'
p3937
S'COL17A1'
p3938
sS'GENE2651X'
p3939
S'GCNT2'
p3940
sS'GENE3600X'
p3941
S'IL15'
p3942
sS'GENE1974X'
p3943
S'EIF4A2'
p3944
sS'GENE2615X'
p3945
S'LRRC32'
p3946
sS'GENE1829X'
p3947
S'DSG2'
p3948
sS'GENE2371X'
p3949
S'FRA1L'
p3950
sS'GENE522X'
p3951
S'ATP5J'
p3952
sS'GENE554X'
p3953
S'AVPR2'
p3954
sS'GENE0X'
p3955
S'0'
sS'GENE2084X'
p3956
S'2084'
p3957
sS'GENE1903X'
p3958
S'S1PR3'
p3959
sS'GENE2662X'
p3960
S'GDF10'
p3961
sS'GENE3722X'
p3962
S'JPD'
p3963
sS'GENE1806X'
p3964
S'DPYD'
p3965
sS'GENE532X'
p3966
S'ATP6V1E1P2'
p3967
sS'GENE1774X'
p3968
S'DNASE1L1'
p3969
sS'GENE1803X'
p3970
S'DPP4'
p3971
sS'GENE1050X'
p3972
S'CEBPA'
p3973
sS'GENE250X'
p3974
S'ALPP'
p3975
sS'GENE3025X'
p3976
S'3025'
p3977
sS'GENE3092X'
p3978
S'HIP1'
p3979
sS'GENE771X'
p3980
S'CA12'
p3981
sS'GENE3422X'
p3982
S'IDI1'
p3983
sS'GENE2638X'
p3984
S'GC'
p3985
sS'GENE854X'
p3986
S'CATHL6'
p3987
sS'GENE3321X'
p3988
S'IGSF3'
p3989
sS'GENE2153X'
p3990
S'F5'
p3991
sS'GENE1016X'
p3992
S'CDH18'
p3993
sS'GENE1504X'
p3994
S'CTRB1'
p3995
sS'GENE3081X'
p3996
S'HGD'
p3997
sS'GENE707X'
p3998
S'707'
p3999
sS'GENE3559X'
p4000
S'IL2RA'
p4001
sS'GENE1734X'
p4002
S'DIO2'
p4003
sS'GENE184X'
p4004
S'AGTBP'
p4005
sS'GENE133X'
p4006
S'ADM'
p4007
sS'GENE2213X'
p4008
S'FCGR2B'
p4009
sS'GENE3267X'
p4010
S'AGFG1'
p4011
sS'GENE394X'
p4012
S'ARHGAP5'
p4013
sS'GENE797X'
p4014
S'CALCB'
p4015
sS'GENE682X'
p4016
S'BSG'
p4017
sS'GENE1388X'
p4018
S'ATF6B'
p4019
sS'GENE1196X'
p4020
S'CLK2'
p4021
sS'GENE2340X'
p4022
S'FNTAL1'
p4023
sS'GENE929X'
p4024
S'CD14'
p4025
sS'GENE3886X'
p4026
S'KRT35'
p4027
sS'GENE3151X'
p4028
S'HMGN2'
p4029
sS'GENE2243X'
p4030
S'FGA'
p4031
sS'GENE2292X'
p4032
S'FOXG1C'
p4033
sS'GENE3256X'
p4034
S'HPRTP4'
p4035
sS'GENE3230X'
p4036
S'HOXD@'
p4037
sS'GENE905X'
p4038
S'CCNT2'
p4039
sS'GENE3777X'
p4040
S'KCNK3'
p4041
sS'GENE1260X'
p4042
S'CNGA2'
p4043
sS'GENE223X'
p4044
S'ALDH9A1'
p4045
sS'GENE1590X'
p4046
S'CYP21A1P'
p4047
sS'GENE3631X'
p4048
S'INPP4A'
p4049
sS'GENE405X'
p4050
S'ARNT'
p4051
sS'GENE3679X'
p4052
S'ITGA7'
p4053
sS'GENE1612X'
p4054
S'DAPK1'
p4055
sS'GENE1981X'
p4056
S'EIF4G1'
p4057
sS'GENE3519X'
p4058
S'IGKV@'
p4059
sS'GENE1211X'
p4060
S'CLTA'
p4061
sS'GENE3289X'
p4062
S'HSD3BP5'
p4063
sS'GENE3831X'
p4064
S'KLC1'
p4065
sS'GENE3924X'
p4066
S'RPSAP14'
p4067
sS'GENE956X'
p4068
S'ENTPD3'
p4069
sS'GENE3168X'
p4070
S'HMX3'
p4071
sS'GENE1568X'
p4072
S'CYP2D8P1'
p4073
sS'GENE2739X'
p4074
S'GLO1'
p4075
sS'GENE1346X'
p4076
S'COX7A1'
p4077
sS'GENE3768X'
p4078
S'KCNJ12'
p4079
sS'GENE943X'
p4080
S'TNFRSF8'
p4081
sS'GENE664X'
p4082
S'BNIP3'
p4083
sS'GENE237X'
p4084
S'ALFN1'
p4085
sS'GENE2366X'
p4086
S'FRA1G'
p4087
sS'GENE513X'
p4088
S'ATP5D'
p4089
sS'GENE2640X'
p4090
S'GCF1'
p4091
sS'GENE3677X'
p4092
S'3677'
p4093
sS'GENE1686X'
p4094
S'DFNA4'
p4095
sS'GENE994X'
p4096
S'CDC25B'
p4097
sS'GENE1834X'
p4098
S'DSPP'
p4099
sS'GENE1752X'
p4100
S'1752'
p4101
sS'GENE1861X'
p4102
S'TOR1A'
p4103
sS'GENE1364X'
p4104
S'CLDN4'
p4105
sS'GENE3617X'
p4106
S'IMPG1'
p4107
sS'GENE1683X'
p4108
S'1683'
p4109
sS'GENE1993X'
p4110
S'ELAVL2'
p4111
sS'GENE3717X'
p4112
S'JAK2'
p4113
sS'GENE1284X'
p4114
S'COL4A2'
p4115
sS'GENE3526X'
p4116
S'IGKV1OR15-118'
p4117
sS'GENE3757X'
p4118
S'KCNH2'
p4119
sS'GENE2454X'
p4120
S'FRA13B'
p4121
sS'GENE195X'
p4122
S'AHNAK'
p4123
sS'GENE1092X'
p4124
S'CEACAMP3'
p4125
sS'GENE2005X'
p4126
S'ELK4'
p4127
sS'GENE1850X'
p4128
S'DUSP8'
p4129
sS'GENE445X'
p4130
S'ASS1'
p4131
sS'GENE3902X'
p4132
S'LAG3'
p4133
sS'GENE3608X'
p4134
S'ILF2'
p4135
sS'GENE1606X'
p4136
S'DGKA'
p4137
sS'GENE114X'
p4138
S'ADCY8'
p4139
sS'GENE3589X'
p4140
S'IL11'
p4141
sS'GENE2272X'
p4142
S'FHIT'
p4143
sS'GENE1576X'
p4144
S'CYP3A4'
p4145
sS'GENE2757X'
p4146
S'GLYB'
p4147
sS'GENE387X'
p4148
S'RHOA'
p4149
sS'GENE249X'
p4150
S'ALPL'
p4151
sS'GENE3448X'
p4152
S'IFNA14'
p4153
sS'GENE3980X'
p4154
S'LIG3'
p4155
sS'GENE2437X'
p4156
S'FRA10G'
p4157
sS'GENE1665X'
p4158
S'DHX15'
p4159
sS'GENE684X'
p4160
S'BST2'
p4161
sS'GENE2547X'
p4162
S'XRCC6'
p4163
sS'GENE1587X'
p4164
S'ADAM3A'
p4165
sS'GENE2338X'
p4166
S'FNRBL'
p4167
sS'GENE2812X'
p4168
S'GP1BB'
p4169
sS'GENE2417X'
p4170
S'FRA7J'
p4171
sS'GENE2865X'
p4172
S'FFAR3'
p4173
sS'GENE1487X'
p4174
S'CTBP1'
p4175
sS'GENE378X'
p4176
S'ARF4'
p4177
sS'GENE145X'
p4178
S'PARP1P2'
p4179
sS'GENE3791X'
p4180
S'KDR'
p4181
sS'GENE330X'
p4182
S'BIRC3'
p4183
sS'GENE3102X'
p4184
S'HKR1'
p4185
sS'GENE3804X'
p4186
S'KIR2DL3'
p4187
sS'GENE1258X'
p4188
S'CNGB1'
p4189
sS'GENE2797X'
p4190
S'GNRH2'
p4191
sS'GENE99X'
p4192
S'AD2'
p4193
sS'GENE83X'
p4194
S'ACTG1P10'
p4195
sS'GENE2823X'
p4196
S'GPM6A'
p4197
sS'GENE2872X'
p4198
S'MKNK2'
p4199
sS'GENE1233X'
p4200
S'CCR4'
p4201
sS'GENE2571X'
p4202
S'GAD1'
p4203
sS'GENE216X'
p4204
S'ALDH1A1'
p4205
sS'GENE1547X'
p4206
S'1547'
p4207
sS'GENE1620X'
p4208
S'BRINP1'
p4209
sS'GENE2714X'
p4210
S'GKP4'
p4211
sS'GENE1692X'
p4212
S'1692'
p4213
sS'GENE649X'
p4214
S'BMP1'
p4215
sS'GENE2309X'
p4216
S'FOXO3'
p4217
sS'GENE2801X'
p4218
S'GOLGA2'
p4219
sS'GENE3504X'
p4220
S'INSL1'
p4221
sS'GENE2741X'
p4222
S'GLRA1'
p4223
sS'GENE765X'
p4224
S'CA6'
p4225
sS'GENE3622X'
p4226
S'ING2'
p4227
sS'GENE3595X'
p4228
S'IL12RB2'
p4229
sS'GENE3655X'
p4230
S'ITGA6'
p4231
sS'GENE3580X'
p4232
S'CXCR2P1'
p4233
sS'GENE1293X'
p4234
S'COL6A3'
p4235
sS'GENE3120X'
p4236
S'HLA-DQB2'
p4237
sS'GENE1625X'
p4238
S'DBIL3'
p4239
sS'GENE1161X'
p4240
S'ERCC8'
p4241
sS'GENE2771X'
p4242
S'GNAI2'
p4243
sS'GENE201X'
p4244
S'AIH3'
p4245
sS'GENE254X'
p4246
S'ALS4'
p4247
sS'GENE1505X'
p4248
S'CTRB2'
p4249
sS'GENE591X'
p4250
S'BCHEL1'
p4251
sS'GENE3642X'
p4252
S'INSM1'
p4253
sS'GENE354X'
p4254
S'KLK3'
p4255
sS'GENE3782X'
p4256
S'KCNN3'
p4257
sS'GENE301X'
p4258
S'ANXA1'
p4259
sS'GENE3133X'
p4260
S'HLA-E'
p4261
sS'GENE2631X'
p4262
S'GBAS'
p4263
sS'GENE1351X'
p4264
S'COX8A'
p4265
sS'GENE2182X'
p4266
S'ACSL4'
p4267
sS'GENE625X'
p4268
S'BDM'
p4269
sS'GENE2457X'
p4270
S'FRA14B'
p4271
sS'GENE821X'
p4272
S'CANX'
p4273
sS'GENE3940X'
p4274
S'LDHAP1'
p4275
sS'GENE3568X'
p4276
S'IL5RA'
p4277
sS'GENE1202X'
p4278
S'CLN4'
p4279
sS'GENE3826X'
p4280
S'KMS'
p4281
sS'GENE1111X'
p4282
S'CHEK1'
p4283
sS'GENE1530X'
p4284
S'CYB5P2'
p4285
sS'GENE906X'
p4286
S'CCO'
p4287
sS'GENE2101X'
p4288
S'ESRRA'
p4289
sS'GENE1425X'
p4290
S'1425'
p4291
sS'GENE464X'
p4292
S'ATCAY'
p4293
sS'GENE2387X'
p4294
S'FRA3D'
p4295
sS'GENE3552X'
p4296
S'IL1A'
p4297
sS'GENE610X'
p4298
S'HCN2'
p4299
sS'GENE116X'
p4300
S'ADCYAP1'
p4301
sS'GENE2400X'
p4302
S'FRA5G'
p4303
sS'GENE3222X'
p4304
S'HOXC5'
p4305
sS'GENE2553X'
p4306
S'GABPB1'
p4307
sS'GENE2502X'
p4308
S'FTH1P10'
p4309
sS'GENE2049X'
p4310
S'EPHB3'
p4311
sS'GENE1159X'
p4312
S'CKMT1B'
p4313
sS'GENE3688X'
p4314
S'ITGB1'
p4315
sS'GENE4018X'
p4316
S'LPA'
p4317
sS'GENE2974X'
p4318
S'GUCY1B2'
p4319
sS'GENE251X'
p4320
S'ALPPL2'
p4321
sS'GENE3403X'
p4322
S'IDDM4'
p4323
sS'GENE282X'
p4324
S'ANCR'
p4325
sS'GENE2495X'
p4326
S'FTH1'
p4327
sS'GENE742X'
p4328
S'C11orf6'
p4329
sS'GENE1409X'
p4330
S'CRYAA'
p4331
sS'GENE974X'
p4332
S'CD79B'
p4333
sS'GENE3341X'
p4334
S'HTC1'
p4335
sS'GENE3947X'
p4336
S'LDHBP2'
p4337
sS'GENE2562X'
p4338
S'GABRB3'
p4339
sS'GENE1842X'
p4340
S'ECM2'
p4341
sS'GENE2515X'
p4342
S'ADAM2'
p4343
sS'GENE1102X'
p4344
S'RCBTB2'
p4345
sS'GENE3415X'
p4346
S'IDDM16'
p4347
sS'GENE2963X'
p4348
S'GTF2F2'
p4349
sS'GENE2027X'
p4350
S'ENO3'
p4351
sS'GENE54X'
p4352
S'ACP5'
p4353
sS'GENE607X'
p4354
S'BCL9'
p4355
sS'GENE2471X'
p4356
S'FRA20A'
p4357
sS'GENE2834X'
p4358
S'PRLHR'
p4359
sS'GENE2439X'
p4360
S'FRA11B'
p4361
sS'GENE2883X'
p4362
S'GPX1P1'
p4363
sS'GENE1465X'
p4364
S'CSRP1'
p4365
sS'GENE316X'
p4366
S'AOX1'
p4367
sS'GENE479X'
p4368
S'ATP12A'
p4369
sS'GENE2929X'
p4370
S'GSK1'
p4371
sS'GENE3355X'
p4372
S'HTR1F'
p4373
sS'GENE2952X'
p4374
S'GSTT1'
p4375
sS'GENE2983X'
p4376
S'GUCY1B3'
p4377
sS'GENE2038X'
p4378
S'EPB42'
p4379
sS'GENE802X'
p4380
S'CALM1P1'
p4381
sS'GENE225X'
p4382
S'ABCD2'
p4383
sS'GENE1489X'
p4384
S'CTF1'
p4385
sS'GENE439X'
p4386
S'ASNA1'
p4387
sS'GENE94X'
p4388
S'ACVRL1'
p4389
sS'GENE3868X'
p4390
S'KRT16'
p4391
sS'GENE3545X'
p4392
S'IGLL3'
p4393
sS'GENE2628X'
p4394
S'GATM'
p4395
sS'GENE270X'
p4396
S'AMPD1'
p4397
sS'GENE3932X'
p4398
S'LCK'
p4399
sS'GENE3320X'
p4400
S'HSP90AA1'
p4401
sS'GENE724X'
p4402
S'C4BPAP2'
p4403
sS'GENE1561X'
p4404
S'1561'
p4405
sS'GENE1902X'
p4406
S'LPAR1'
p4407
sS'GENE1008X'
p4408
S'CDH10'
p4409
sS'GENE2238X'
p4410
S'FENL1'
p4411
sS'GENE3721X'
p4412
S'JMS'
p4413
sS'GENE535X'
p4414
S'ATP6V0A1'
p4415
sS'GENE1397X'
p4416
S'CRIP2'
p4417
sS'GENE1057X'
p4418
S'CELP'
p4419
sS'GENE2689X'
p4420
S'GH2'
p4421
sS'GENE2654X'
p4422
S'GCSL'
p4423
sS'GENE2908X'
p4424
S'NR3C1'
p4425
sS'GENE2341X'
p4426
S'FNTAP2'
p4427
sS'GENE2152X'
p4428
S'F3'
p4429
sS'GENE893X'
p4430
S'CCND1'
p4431
sS'GENE3582X'
p4432
S'IL9RP1'
p4433
sS'GENE1015X'
p4434
S'CDH17'
p4435
sS'GENE1040X'
p4436
S'CDS1'
p4437
sS'GENE3086X'
p4438
S'HHC2'
p4439
sS'GENE1768X'
p4440
S'DNAH6'
p4441
sS'GENE3716X'
p4442
S'JAK1'
p4443
sS'GENE185X'
p4444
S'AGTR1'
p4445
sS'GENE132X'
p4446
S'ADK'
p4447
sS'GENE1097X'
p4448
S'CEACAMP9'
p4449
sS'GENE933X'
p4450
S'CD22'
p4451
sS'GENE3264X'
p4452
S'HR'
p4453
sS'GENE2584X'
p4454
S'GALK1'
p4455
sS'GENE1197X'
p4456
S'CLK2P'
p4457
sS'GENE2706X'
p4458
S'GJB2'
p4459
sS'GENE1924X'
p4460
S'EEF1AL6'
p4461
sS'GENE1645X'
p4462
S'AKR1C1'
p4463
sS'GENE3031X'
p4464
S'HADHAP1'
p4465
sS'GENE3064X'
p4466
S'HTT'
p4467
sS'GENE568X'
p4468
S'B2MR'
p4469
sS'GENE3695X'
p4470
S'ITGB7'
p4471
sS'GENE3432X'
p4472
S'3432'
p4473
sS'GENE295X'
p4474
S'ANTP2'
p4475
sS'GENE3311X'
p4476
S'HSPA7'
p4477
sS'GENE2544X'
p4478
S'G6PT2'
p4479
sS'GENE2065X'
p4480
S'ERBB3'
p4481
sS'GENE1382X'
p4482
S'CRABP2'
p4483
sS'GENE1175X'
p4484
S'AP2S1'
p4485
sS'GENE1624X'
p4486
S'DBIP1'
p4487
sS'GENE2170X'
p4488
S'FABP3'
p4489
sS'GENE3017X'
p4490
S'HIST1H2BD'
p4491
sS'GENE1037X'
p4492
S'1037'
p4493
sS'GENE1621X'
p4494
S'DBH'
p4495
sS'GENE3079X'
p4496
S'CFHR1P'
p4497
sS'GENE1137X'
p4498
S'CHRNA4'
p4499
sS'GENE1327X'
p4500
S'COX4I1'
p4501
sS'GENE2352X'
p4502
S'FOLR3'
p4503
sS'GENE2163X'
p4504
S'F13A2'
p4505
sS'GENE3848X'
p4506
S'KRT1'
p4507
sS'GENE2694X'
p4508
S'GIF'
p4509
sS'GENE1277X'
p4510
S'COL1A1'
p4511
sS'GENE1168X'
p4512
S'1168'
p4513
sS'GENE3368X'
p4514
S'HVBS6'
p4515
sS'GENE767X'
p4516
S'CA8'
p4517
sS'GENE192X'
p4518
S'AIC'
p4519
sS'GENE1285X'
p4520
S'COL4A3'
p4521
sS'GENE911X'
p4522
S'CD1C'
p4523
sS'GENE3242X'
p4524
S'HPD'
p4525
sS'GENE944X'
p4526
S'TNFSF8'
p4527
sS'GENE667X'
p4528
S'DST'
p4529
sS'GENE2367X'
p4530
S'FRA1H'
p4531
sS'GENE3949X'
p4532
S'LDLR'
p4533
sS'GENE3676X'
p4534
S'ITGA4'
p4535
sS'GENE399X'
p4536
S'RHOH'
p4537
sS'GENE968X'
p4538
S'CD68'
p4539
sS'GENE2616X'
p4540
S'GAPDHP1'
p4541
sS'GENE993X'
p4542
S'CDC25A'
p4543
sS'GENE1845X'
p4544
S'DUSP3'
p4545
sS'GENE1385X'
p4546
S'CREB1'
p4547
sS'GENE1636X'
p4548
S'ACE'
p4549
sS'GENE3965X'
p4550
S'3965'
p4551
sS'GENE3616X'
p4552
S'IMPDHL1'
p4553
sS'GENE3930X'
p4554
S'LBR'
p4555
sS'GENE2030X'
p4556
S'SLC29A1'
p4557
sS'GENE1789X'
p4558
S'DNMT3B'
p4559
sS'GENE3521X'
p4560
S'3521'
p4561
sS'GENE959X'
p4562
S'CD40LG'
p4563
sS'GENE3754X'
p4564
S'KCNF1'
p4565
sS'GENE984X'
p4566
S'CDK11B'
p4567
sS'GENE1514X'
p4568
S'CTSL'
p4569
sS'GENE1857X'
p4570
S'DVL3'
p4571
sS'GENE3609X'
p4572
S'ILF3'
p4573
sS'GENE3901X'
p4574
S'3901'
p4575
sS'GENE113X'
p4576
S'ADCY7'
p4577
sS'GENE2273X'
p4578
S'FHL1'
p4579
sS'GENE2043X'
p4580
S'EPHA4'
p4581
sS'GENE1318X'
p4582
S'SLC31A2'
p4583
sS'GENE3306X'
p4584
S'HSPA2'
p4585
sS'GENE833X'
p4586
S'CARS'
p4587
sS'GENE888X'
p4588
S'888'
p4589
sS'GENE2514X'
p4590
S'FTLL2'
p4591
sS'GENE1693X'
p4592
S'DFNA14'
p4593
sS'GENE2265X'
p4594
S'FGFR6'
p4595
sS'GENE432X'
p4596
S'ASGR1'
p4597
sS'GENE1442X'
p4598
S'CSH1'
p4599
sS'GENE1735X'
p4600
S'DIO3'
p4601
sS'GENE3366X'
p4602
S'HVBS1'
p4603
sS'GENE769X'
p4604
S'CA10'
p4605
sS'GENE3481X'
p4606
S'IGF2'
p4607
sS'GENE1526X'
p4608
S'CXB3S'
p4609
sS'GENE3384X'
p4610
S'ICAM2'
p4611
sS'GENE2705X'
p4612
S'GJB1'
p4613
sS'GENE1911X'
p4614
S'PHC1'
p4615
sS'GENE1079X'
p4616
S'CFNS'
p4617
sS'GENE3279X'
p4618
S'HRPT2'
p4619
sS'GENE2609X'
p4620
S'GAPDHP67'
p4621
sS'GENE2636X'
p4622
S'GBX1'
p4623
sS'GENE2713X'
p4624
S'GK3P'
p4625
sS'GENE1307X'
p4626
S'COL16A1'
p4627
sS'GENE1975X'
p4628
S'EIF4B'
p4629
sS'GENE2370X'
p4630
S'FRA1K'
p4631
sS'GENE1398X'
p4632
S'CRK'
p4633
sS'GENE523X'
p4634
S'ATP6V1A'
p4635
sS'GENE3527X'
p4636
S'IGKV3OR22-2'
p4637
sS'GENE3028X'
p4638
S'HSD17B10'
p4639
sS'GENE2087X'
p4640
S'ERVK2'
p4641
sS'GENE2770X'
p4642
S'GNAI1'
p4643
sS'GENE3742X'
p4644
S'KCNA6'
p4645
sS'GENE22X'
p4646
S'ABCB7'
p4647
sS'GENE648X'
p4648
S'BMI1'
p4649
sS'GENE2800X'
p4650
S'GOLGA1'
p4651
sS'GENE1263X'
p4652
S'PLK3'
p4653
sS'GENE2306X'
p4654
S'FOXD2'
p4655
sS'GENE302X'
p4656
S'ANXA2'
p4657
sS'GENE3503X'
p4658
S'IGHG4'
p4659
sS'GENE159X'
p4660
S'ADSS'
p4661
sS'GENE3178X'
p4662
S'HNRNPA1'
p4663
sS'GENE231X'
p4664
S'AKR1B1'
p4665
sS'GENE3623X'
p4666
S'INHA'
p4667
sS'GENE3927X'
p4668
S'LASP1'
p4669
sS'GENE3654X'
p4670
S'IRAK1'
p4671
sS'GENE118X'
p4672
S'ADD1'
p4673
sS'GENE1292X'
p4674
S'COL6A2'
p4675
sS'GENE1832X'
p4676
S'DSP'
p4677
sS'GENE3123X'
p4678
S'HLA-DRB1'
p4679
sS'GENE3827X'
p4680
S'KNG1'
p4681
sS'GENE200X'
p4682
S'AIH2'
p4683
sS'GENE3225X'
p4684
S'HOXC9'
p4685
sS'GENE255X'
p4686
S'ALS5'
p4687
sS'GENE3643X'
p4688
S'INSR'
p4689
sS'GENE590X'
p4690
S'BCHE'
p4691
sS'GENE357X'
p4692
S'SHROOM2'
p4693
sS'GENE855X'
p4694
S'855'
p4695
sS'GENE3293X'
p4696
S'HSD17B3'
p4697
sS'GENE2183X'
p4698
S'2183'
p4699
sS'GENE279X'
p4700
S'AMY2A'
p4701
sS'GENE1352X'
p4702
S'COX10'
p4703
sS'GENE2647X'
p4704
S'BLOC1S1'
p4705
sS'GENE2326X'
p4706
S'FMO1'
p4707
sS'GENE955X'
p4708
S'ENTPD6'
p4709
sS'GENE1203X'
p4710
S'CLN5'
p4711
sS'GENE1679X'
p4712
S'DFN2'
p4713
sS'GENE3206X'
p4714
S'HOXA10'
p4715
sS'GENE3007X'
p4716
S'HIST1H1D'
p4717
sS'GENE3887X'
p4718
S'KRT81'
p4719
sS'GENE104X'
p4720
S'ADARB1'
p4721
sS'GENE3183X'
p4722
S'HNRNPC'
p4723
sS'GENE2242X'
p4724
S'FES'
p4725
sS'GENE3152X'
p4726
S'HMGN2P11'
p4727
sS'GENE2293X'
p4728
S'2293'
p4729
sS'GENE1261X'
p4730
S'CNGA3'
p4731
sS'GENE3233X'
p4732
S'HOXD4'
p4733
sS'GENE3778X'
p4734
S'KCNMA1'
p4735
sS'GENE1828X'
p4736
S'DSG1'
p4737
sS'GENE1591X'
p4738
S'CYP24A1'
p4739
sS'GENE222X'
p4740
S'ALDH3B2'
p4741
sS'GENE3630X'
p4742
S'INS'
p4743
sS'GENE1840X'
p4744
S'DTX1'
p4745
sS'GENE3678X'
p4746
S'ITGA5'
p4747
sS'GENE1345X'
p4748
S'COX6C'
p4749
sS'GENE3172X'
p4750
S'HNF4A'
p4751
sS'GENE1980X'
p4752
S'EIF4EP1'
p4753
sS'GENE1210X'
p4754
S'CLS'
p4755
sS'GENE1648X'
p4756
S'GADD45AP1'
p4757
sS'GENE3830X'
p4758
S'3830'
p4759
sS'GENE3977X'
p4760
S'LIFR'
p4761
sS'GENE1790X'
p4762
S'1790'
p4763
sS'GENE1369X'
p4764
S'CPN1'
p4765
sS'GENE3532X'
p4766
S'IGKV1OR-2'
p4767
sS'GENE168X'
p4768
S'AEZ'
p4769
sS'GENE2738X'
p4770
S'GLI4'
p4771
sS'GENE3990X'
p4772
S'LIPC'
p4773
sS'GENE1517X'
p4774
S'CTSLP2'
p4775
sS'GENE2472X'
p4776
S'FRA20B'
p4777
sS'GENE825X'
p4778
S'CAPN3'
p4779
sS'GENE3845X'
p4780
S'KRAS'
p4781
sS'GENE2563X'
p4782
S'GABRD'
p4783
sS'GENE2919X'
p4784
S'CXCL1'
p4785
sS'GENE2046X'
p4786
S'EPHA8'
p4787
sS'GENE3414X'
p4788
S'IDDM15'
p4789
sS'GENE721X'
p4790
S'C4B'
p4791
sS'GENE2873X'
p4792
S'GPS1'
p4793
sS'GENE2328X'
p4794
S'FMO3'
p4795
sS'GENE368X'
p4796
S'ABCC6'
p4797
sS'GENE1479X'
p4798
S'CSTF3'
p4799
sS'GENE3734X'
p4800
S'KALP'
p4801
sS'GENE55X'
p4802
S'ACPP'
p4803
sS'GENE2935X'
p4804
S'GSPT1'
p4805
sS'GENE2026X'
p4806
S'ENO2'
p4807
sS'GENE2960X'
p4808
S'GTF2E1'
p4809
sS'GENE606X'
p4810
S'NBEAP1'
p4811
sS'GENE2835X'
p4812
S'GPR12'
p4813
sS'GENE2882X'
p4814
S'GPX7'
p4815
sS'GENE3223X'
p4816
S'HOXC6'
p4817
sS'GENE17X'
p4818
S'AAVS1'
p4819
sS'GENE2384X'
p4820
S'FRA3A'
p4821
sS'GENE319X'
p4822
S'APOF'
p4823
sS'GENE2481X'
p4824
S'FRAXE'
p4825
sS'GENE2039X'
p4826
S'DMTN'
p4827
sS'GENE2951X'
p4828
S'GSTP1P1'
p4829
sS'GENE95X'
p4830
S'ACY1'
p4831
sS'GENE375X'
p4832
S'ARF1'
p4833
sS'GENE320X'
p4834
S'APBA1'
p4835
sS'GENE1431X'
p4836
S'CS'
p4837
sS'GENE3869X'
p4838
S'KRT16L1'
p4839
sS'GENE787X'
p4840
S'CACP'
p4841
sS'GENE3544X'
p4842
S'IGLL2P'
p4843
sS'GENE3572X'
p4844
S'IL6ST'
p4845
sS'GENE3514X'
p4846
S'IGKC'
p4847
sS'GENE146X'
p4848
S'ADRA1D'
p4849
sS'GENE1749X'
p4850
S'DLX5'
p4851
sS'GENE2756X'
p4852
S'GLULP'
p4853
sS'GENE48X'
p4854
S'ACO1'
p4855
sS'GENE3449X'
p4856
S'IFNA16'
p4857
sS'GENE248X'
p4858
S'ALPI'
p4859
sS'GENE3987X'
p4860
S'LIMS1'
p4861
sS'GENE31X'
p4862
S'ACACA'
p4863
sS'GENE166X'
p4864
S'AES'
p4865
sS'GENE3165X'
p4866
S'HMS1'
p4867
sS'GENE2736X'
p4868
S'GLI2'
p4869
sS'GENE3130X'
p4870
S'HLA-DRB8'
p4871
sS'GENE1586X'
p4872
S'CYP17A1'
p4873
sS'GENE421X'
p4874
S'ARVCF'
p4875
sS'GENE552X'
p4876
S'AVPR1A'
p4877
sS'GENE2813X'
p4878
S'GP2'
p4879
sS'GENE2864X'
p4880
S'FFAR1'
p4881
sS'GENE2449X'
p4882
S'FRA12B'
p4883
sS'GENE1696X'
p4884
S'DFNA19'
p4885
sS'GENE2414X'
p4886
S'FRA7G'
p4887
sS'GENE337X'
p4888
S'APOA4'
p4889
sS'GENE3796X'
p4890
S'KIF2A'
p4891
sS'GENE3101X'
p4892
S'HK3'
p4893
sS'GENE2796X'
p4894
S'GNRH1'
p4895
sS'GENE3012X'
p4896
S'HIST1H2AE'
p4897
sS'GENE79X'
p4898
S'ACTG1P7'
p4899
sS'GENE1899X'
p4900
S'1899'
p4901
sS'GENE2699X'
p4902
S'GJA2'
p4903
sS'GENE2822X'
p4904
S'GPLD1'
p4905
sS'GENE1232X'
p4906
S'CCR3'
p4907
sS'GENE1666X'
p4908
S'DECR1'
p4909
sS'GENE2570X'
p4910
S'GABRR2'
p4911
sS'GENE1546X'
p4912
S'CYP2A'
p4913
sS'GENE217X'
p4914
S'ALDH2'
p4915
sS'GENE962X'
p4916
S'CD48'
p4917
sS'GENE1036X'
p4918
S'CDO1'
p4919
sS'GENE1413X'
p4920
S'CRYBA4'
p4921
sS'GENE3030X'
p4922
S'HADHA'
p4923
sS'GENE1923X'
p4924
S'EEF1AL5'
p4925
sS'GENE3065X'
p4926
S'HDAC1'
p4927
sS'GENE1646X'
p4928
S'AKR1C2'
p4929
sS'GENE3694X'
p4930
S'ITGB6'
p4931
sS'GENE569X'
p4932
S'569'
p4933
sS'GENE296X'
p4934
S'ANTP3'
p4935
sS'GENE3431X'
p4936
S'SP110'
p4937
sS'GENE2545X'
p4938
S'G6PT3'
p4939
sS'GENE2977X'
p4940
S'GUCY1A2'
p4941
sS'GENE2064X'
p4942
S'ERBB2'
p4943
sS'GENE1751X'
p4944
S'DLX9'
p4945
sS'GENE1176X'
p4946
S'AP3S1'
p4947
sS'GENE2173X'
p4948
S'FABP7'
p4949
sS'GENE191X'
p4950
S'AHCY'
p4951
sS'GENE1730X'
p4952
S'DIAPH2'
p4953
sS'GENE2426X'
p4954
S'FRA9B'
p4955
sS'GENE2073X'
p4956
S'ERCC5'
p4957
sS'GENE1130X'
p4958
S'LYST'
p4959
sS'GENE1670X'
p4960
S'DEFA5'
p4961
sS'GENE2695X'
p4962
S'GIP'
p4963
sS'GENE3933X'
p4964
S'LCN1'
p4965
sS'GENE2503X'
p4966
S'FTH1P11'
p4967
sS'GENE1897X'
p4968
S'1897'
p4969
sS'GENE1531X'
p4970
S'CYB5AP3'
p4971
sS'GENE750X'
p4972
S'C16orf3'
p4973
sS'GENE1116X'
p4974
S'CHI3L1'
p4975
sS'GENE2140X'
p4976
S'EYA3'
p4977
sS'GENE1063X'
p4978
S'CENPF'
p4979
sS'GENE2102X'
p4980
S'ESRRAP'
p4981
sS'GENE463X'
p4982
S'ZFHX3'
p4983
sS'GENE1422X'
p4984
S'CRYGEP1'
p4985
sS'GENE3010X'
p4986
S'HIST1H1T'
p4987
sS'GENE611X'
p4988
S'OPN1SW'
p4989
sS'GENE2403X'
p4990
S'FRA6C'
p4991
sS'GENE1739X'
p4992
S'DLG1'
p4993
sS'GENE2690X'
p4994
S'GHR'
p4995
sS'GENE2552X'
p4996
S'GABPB1'
p4997
sS'GENE2917X'
p4998
S'GRM7'
p4999
sS'GENE2048X'
p5000
S'EPHB2'
p5001
sS'GENE3689X'
p5002
S'ITGB2'
p5003
sS'GENE1156X'
p5004
S'CKBE'
p5005
sS'GENE4019X'
p5006
S'LPAL1'
p5007
sS'GENE3553X'
p5008
S'IL1B'
p5009
sS'GENE823X'
p5010
S'CAPN1'
p5011
sS'GENE1811X'
p5012
S'SLC26A3'
p5013
sS'GENE2999X'
p5014
S'GZMH'
p5015
sS'GENE2891X'
p5016
S'GRIA2'
p5017
sS'GENE281X'
p5018
S'AMYP1'
p5019
sS'GENE3400X'
p5020
S'ID4'
p5021
sS'GENE2492X'
p5022
S'FSHR'
p5023
sS'GENE70X'
p5024
S'ACTC1'
p5025
sS'GENE2608X'
p5026
S'GAPDHL11'
p5027
sS'GENE1874X'
p5028
S'E2F4'
p5029
sS'GENE3309X'
p5030
S'HSPA5'
p5031
sS'GENE347X'
p5032
S'APOD'
p5033
sS'GENE126X'
p5034
S'ADH1C'
p5035
sS'GENE2264X'
p5036
S'FGFR4'
p5037
sS'GENE879X'
p5038
S'879'
p5039
sS'GENE3337X'
p5040
S'DNAJB1'
p5041
sS'GENE1818X'
p5042
S'DRD5P2'
p5043
sS'GENE1732X'
p5044
S'DIH1'
p5045
sS'GENE818X'
p5046
S'CAMK2G'
p5047
sS'GENE3365X'
p5048
S'HV1S'
p5049
sS'GENE863X'
p5050
S'CBFA2T3'
p5051
sS'GENE3330X'
p5052
S'HSPDP1'
p5053
sS'GENE1078X'
p5054
S'CFLP4'
p5055
sS'GENE3387X'
p5056
S'ICCA'
p5057
sS'GENE1916X'
p5058
S'EEF1A1L14'
p5059
sS'GENE3278X'
p5060
S'HRPT1'
p5061
sS'GENE1969X'
p5062
S'EPHA2'
p5063
sS'GENE2086X'
p5064
S'ERV3-1'
p5065
sS'GENE1956X'
p5066
S'EGFR'
p5067
sS'GENE2637X'
p5068
S'GBX2'
p5069
sS'GENE488X'
p5070
S'ATP2A2'
p5071
sS'GENE1778X'
p5072
S'DYNC1H1'
p5073
sS'GENE1703X'
p5074
S'DFNB11'
p5075
sS'GENE1306X'
p5076
S'COL15A1'
p5077
sS'GENE1792X'
p5078
S'1792'
p5079
sS'GENE1747X'
p5080
S'DLX3'
p5081
sS'GENE433X'
p5082
S'ASGR2'
p5083
sS'GENE770X'
p5084
S'CA11'
p5085
sS'GENE2X'
p5086
S'A2M'
p5087
sS'GENE1399X'
p5088
S'CRKL'
p5089
sS'GENE520X'
p5090
S'ATP5G2P1'
p5091
sS'GENE2444X'
p5092
S'FRK'
p5093
sS'GENE529X'
p5094
S'ATP6V1E1'
p5095
sS'GENE852X'
p5096
S'CATHL4'
p5097
sS'GENE3327X'
p5098
S'HSP90AB3P'
p5099
sS'GENE1009X'
p5100
S'CDH11'
p5101
sS'GENE2768X'
p5102
S'GNA12'
p5103
sS'GENE2239X'
p5104
S'GPC4'
p5105
sS'GENE1958X'
p5106
S'EGR1'
p5107
sS'GENE3720X'
p5108
S'JARID2'
p5109
sS'GENE534X'
p5110
S'ATP6V1G2'
p5111
sS'GENE2135X'
p5112
S'EXTL2'
p5113
sS'GENE2160X'
p5114
S'F11'
p5115
sS'GENE3458X'
p5116
S'IFNG'
p5117
sS'GENE1056X'
p5118
S'CEL'
p5119
sS'GENE2688X'
p5120
S'GH1'
p5121
sS'GENE1934X'
p5122
S'EEF1B2P2'
p5123
sS'GENE2655X'
p5124
S'GCTG'
p5125
sS'GENE1440X'
p5126
S'CSF3'
p5127
sS'GENE1141X'
p5128
S'CHRNB2'
p5129
sS'GENE1194X'
p5130
S'1194'
p5131
sS'GENE2346X'
p5132
S'FOLH1'
p5133
sS'GENE2151X'
p5134
S'F2RL2'
p5135
sS'GENE1014X'
p5136
S'CDH16'
p5137
sS'GENE1041X'
p5138
S'CDSN'
p5139
sS'GENE2818X'
p5140
S'GPC2'
p5141
sS'GENE3087X'
p5142
S'HHEX'
p5143
sS'GENE605X'
p5144
S'BCL7A'
p5145
sS'GENE1178X'
p5146
S'CLC'
p5147
sS'GENE799X'
p5148
S'CALCR'
p5149
sS'GENE3378X'
p5150
S'IBD2'
p5151
sS'GENE186X'
p5152
S'AGTR2'
p5153
sS'GENE1096X'
p5154
S'CEACAMP8'
p5155
sS'GENE3265X'
p5156
S'HRAS'
p5157
sS'GENE932X'
p5158
S'MS4A3'
p5159
sS'GENE2585X'
p5160
S'GALK2'
p5161
sS'GENE3315X'
p5162
S'HSPB1'
p5163
sS'GENE3633X'
p5164
S'INPP5B'
p5165
sS'GENE3182X'
p5166
S'HNRNPAB'
p5167
sS'GENE3884X'
p5168
S'KRT33B'
p5169
sS'GENE3153X'
p5170
S'HMGN2P12'
p5171
sS'GENE2241X'
p5172
S'FER'
p5173
sS'GENE3900X'
p5174
S'3900'
p5175
sS'GENE556X'
p5176
S'AVRR'
p5177
sS'GENE3232X'
p5178
S'HOXD3'
p5179
sS'GENE907X'
p5180
S'CCT'
p5181
sS'GENE3779X'
p5182
S'KCNMB1'
p5183
sS'GENE1262X'
p5184
S'CNGA4'
p5185
sS'GENE1841X'
p5186
S'DTYMK'
p5187
sS'GENE1344X'
p5188
S'COX6B1P4'
p5189
sS'GENE3592X'
p5190
S'IL12A'
p5191
sS'GENE1983X'
p5192
S'EIF5'
p5193
sS'GENE1649X'
p5194
S'DDIT3'
p5195
sS'GENE3899X'
p5196
S'AFF3'
p5197
sS'GENE352X'
p5198
S'APPL1'
p5199
sS'GENE805X'
p5200
S'CALM2'
p5201
sS'GENE1368X'
p5202
S'CPM'
p5203
sS'GENE3352X'
p5204
S'HTR1D'
p5205
sS'GENE3533X'
p5206
S'IGKV1OR-3'
p5207
sS'GENE169X'
p5208
S'AF8T'
p5209
sS'GENE1681X'
p5210
S'DFN5'
p5211
sS'GENE3325X'
p5212
S'HSPCAL4'
p5213
sS'GENE3715X'
p5214
S'3715'
p5215
sS'GENE1282X'
p5216
S'COL4A1'
p5217
sS'GENE945X'
p5218
S'CD33'
p5219
sS'GENE1748X'
p5220
S'DLX4'
p5221
sS'GENE666X'
p5222
S'BOK'
p5223
sS'GENE3948X'
p5224
S'LDHC'
p5225
sS'GENE2360X'
p5226
S'FRA1A'
p5227
sS'GENE511X'
p5228
S'511'
p5229
sS'GENE1563X'
p5230
S'1563'
p5231
sS'GENE1976X'
p5232
S'1976'
p5233
sS'GENE2617X'
p5234
S'GARS'
p5235
sS'GENE969X'
p5236
S'CD69'
p5237
sS'GENE992X'
p5238
S'992'
p5239
sS'GENE1836X'
p5240
S'SLC26A2'
p5241
sS'GENE3964X'
p5242
S'LGALS8'
p5243
sS'GENE1366X'
p5244
S'CLDN7'
p5245
sS'GENE1456X'
p5246
S'CSNK1G3'
p5247
sS'GENE898X'
p5248
S'CCNE1'
p5249
sS'GENE3615X'
p5250
S'IMPDH2'
p5251
sS'GENE885X'
p5252
S'CCK'
p5253
sS'GENE3520X'
p5254
S'3520'
p5255
sS'GENE3755X'
p5256
S'KCNG1'
p5257
sS'GENE958X'
p5258
S'CD40'
p5259
sS'GENE985X'
p5260
S'CDC2L2'
p5261
sS'GENE1725X'
p5262
S'DHPS'
p5263
sS'GENE1320X'
p5264
S'1320'
p5265
sS'GENE1224X'
p5266
S'CMD2A'
p5267
sS'GENE3389X'
p5268
S'ICR2B'
p5269
sS'GENE954X'
p5270
S'ENTPD2'
p5271
sS'GENE112X'
p5272
S'ADCY6'
p5273
sS'GENE172X'
p5274
S'AFG3L1P'
p5275
sS'GENE2270X'
p5276
S'FGS2'
p5277
sS'GENE241X'
p5278
S'ALOX5AP'
p5279
sS'GENE1229X'
p5280
S'1229'
p5281
sS'GENE1319X'
p5282
S'CORD1'
p5283
sS'GENE2415X'
p5284
S'FRA7H'
p5285
sS'GENE474X'
p5286
S'ATOH1'
p5287
sS'GENE3515X'
p5288
S'IGKDEL'
p5289
sS'GENE1451X'
p5290
S'1451'
p5291
sS'GENE147X'
p5292
S'ADRA1B'
p5293
sS'GENE2759X'
p5294
S'GLYS1'
p5295
sS'GENE1227X'
p5296
S'CMH2'
p5297
sS'GENE36X'
p5298
S'ACADSB'
p5299
sS'GENE719X'
p5300
S'C3AR1'
p5301
sS'GENE1578X'
p5302
S'1578'
p5303
sS'GENE3986X'
p5304
S'LIMM'
p5305
sS'GENE356X'
p5306
S'FASLG'
p5307
sS'GENE3164X'
p5308
S'NR4A1'
p5309
sS'GENE167X'
p5310
S'CRISP1'
p5311
sS'GENE3131X'
p5312
S'HLF'
p5313
sS'GENE3819X'
p5314
S'3819'
p5315
sS'GENE2735X'
p5316
S'GLI1'
p5317
sS'GENE2760X'
p5318
S'GM2A'
p5319
sS'GENE658X'
p5320
S'BMPR1B'
p5321
sS'GENE2448X'
p5322
S'FRA12A'
p5323
sS'GENE2810X'
p5324
S'SFN'
p5325
sS'GENE580X'
p5326
S'BARD1'
p5327
sS'GENE2858X'
p5328
S'GPR34P'
p5329
sS'GENE2642X'
p5330
S'GCGR'
p5331
sS'GENE3797X'
p5332
S'KIF3C'
p5333
sS'GENE336X'
p5334
S'APOA2'
p5335
sS'GENE3100X'
p5336
S'HK2P'
p5337
sS'GENE1898X'
p5338
S'1898'
p5339
sS'GENE2791X'
p5340
S'GNG11'
p5341
sS'GENE1667X'
p5342
S'DEFA1'
p5343
sS'GENE3348X'
p5344
S'HTX2'
p5345
sS'GENE3247X'
p5346
S'HPFH2'
p5347
sS'GENE3851X'
p5348
S'KRT4'
p5349
sS'GENE2573X'
p5350
S'GAD3'
p5351
sS'GENE210X'
p5352
S'ALAD'
p5353
sS'GENE1541X'
p5354
S'CYMD'
p5355
sS'GENE2324X'
p5356
S'FLT4'
p5357
sS'GENE3122X'
p5358
S'HLA-DRA'
p5359
sS'GENE2777X'
p5360
S'GNAQP1'
p5361
sS'GENE1781X'
p5362
S'DYNC1I2'
p5363
sS'GENE647X'
p5364
S'BLYM'
p5365
sS'GENE2307X'
p5366
S'FOXS1'
p5367
sS'GENE2803X'
p5368
S'GOLGA4'
p5369
sS'GENE3502X'
p5370
S'IGHG3'
p5371
sS'GENE715X'
p5372
S'C1R'
p5373
sS'GENE2289X'
p5374
S'FKBP5'
p5375
sS'GENE3926X'
p5376
S'LARS'
p5377
sS'GENE744X'
p5378
S'MPPED2'
p5379
sS'GENE1337X'
p5380
S'COX6A1'
p5381
sS'GENE3347X'
p5382
S'HTN3'
p5383
sS'GENE1295X'
p5384
S'COL8A1'
p5385
sS'GENE1248X'
p5386
S'CMT1A'
p5387
sS'GENE1678X'
p5388
S'TIMM8A'
p5389
sS'GENE1255X'
p5390
S'CNA1'
p5391
sS'GENE1200X'
p5392
S'TPP1'
p5393
sS'GENE3820X'
p5394
S'KLRB1'
p5395
sS'GENE256X'
p5396
S'256'
p5397
sS'GENE3479X'
p5398
S'IGF1'
p5399
sS'GENE597X'
p5400
S'BCL2A1'
p5401
sS'GENE3644X'
p5402
S'INSRL'
p5403
sS'GENE3179X'
p5404
S'HNRPA1L'
p5405
sS'GENE158X'
p5406
S'ADSL'
p5407
sS'GENE3292X'
p5408
S'HSD17B1'
p5409
sS'GENE2728X'
p5410
S'GLC3B'
p5411
sS'GENE1353X'
p5412
S'COX11'
p5413
sS'GENE3049X'
p5414
S'HBQ1'
p5415
sS'GENE627X'
p5416
S'BDNF'
p5417
sS'GENE2327X'
p5418
S'FMO2'
p5419
sS'GENE1607X'
p5420
S'DGKB'
p5421
sS'GENE1990X'
p5422
S'CELA1'
p5423
sS'GENE3873X'
p5424
S'KRT17P1'
p5425
sS'GENE1896X'
p5426
S'EDA'
p5427
sS'GENE2551X'
p5428
S'GABPA'
p5429
sS'GENE2504X'
p5430
S'FTH1P12'
p5431
sS'GENE1117X'
p5432
S'CHI3L2'
p5433
sS'GENE1532X'
p5434
S'CYB5AP4'
p5435
sS'GENE2103X'
p5436
S'ESRRB'
p5437
sS'GENE1423X'
p5438
S'CRYGFP'
p5439
sS'GENE3091X'
p5440
S'HIF1A'
p5441
sS'GENE2950X'
p5442
S'GSTP1'
p5443
sS'GENE2528X'
p5444
S'FUT6'
p5445
sS'GENE776X'
p5446
S'CACNA1D'
p5447
sS'GENE612X'
p5448
S'BCPM'
p5449
sS'GENE2402X'
p5450
S'FRA6B'
p5451
sS'GENE49X'
p5452
S'ACR'
p5453
sS'GENE2916X'
p5454
S'GRM6'
p5455
sS'GENE2743X'
p5456
S'GLRB'
p5457
sS'GENE2519X'
p5458
S'FUCA2'
p5459
sS'GENE1157X'
p5460
S'CKBP1'
p5461
sS'GENE1860X'
p5462
S'DYS'
p5463
sS'GENE1875X'
p5464
S'E2F5'
p5465
sS'GENE61X'
p5466
S'ACTBP1'
p5467
sS'GENE1825X'
p5468
S'DSC3'
p5469
sS'GENE2998X'
p5470
S'GYS2'
p5471
sS'GENE3554X'
p5472
S'IL1R1'
p5473
sS'GENE575X'
p5474
S'BAI1'
p5475
sS'GENE3401X'
p5476
S'IDDM2'
p5477
sS'GENE280X'
p5478
S'AMY2B'
p5479
sS'GENE2493X'
p5480
S'FSP'
p5481
sS'GENE58X'
p5482
S'ACTA1'
p5483
sS'GENE258X'
p5484
S'AMBN'
p5485
sS'GENE3477X'
p5486
S'IGER'
p5487
sS'GENE3991X'
p5488
S'LIPE'
p5489
sS'GENE2473X'
p5490
S'FRA22A'
p5491
sS'GENE2918X'
p5492
S'GRM8'
p5493
sS'GENE3842X'
p5494
S'TNPO1'
p5495
sS'GENE2560X'
p5496
S'GABRB1'
p5497
sS'GENE629X'
p5498
S'CFB'
p5499
sS'GENE2329X'
p5500
S'FMO4'
p5501
sS'GENE2821X'
p5502
S'GPI'
p5503
sS'GENE56X'
p5504
S'ACRV1'
p5505
sS'GENE499X'
p5506
S'ATP5A2'
p5507
sS'GENE369X'
p5508
S'ARAF'
p5509
sS'GENE2934X'
p5510
S'GSN'
p5511
sS'GENE2700X'
p5512
S'GJA3'
p5513
sS'GENE2961X'
p5514
S'GTF2E2'
p5515
sS'GENE2025X'
p5516
S'ENO1P1'
p5517
sS'GENE2782X'
p5518
S'GNB1'
p5519
sS'GENE10X'
p5520
S'NAT2'
p5521
sS'GENE2836X'
p5522
S'2836'
p5523
sS'GENE2385X'
p5524
S'FRA3B'
p5525
sS'GENE4021X'
p5526
S'LPGP1'
p5527
sS'GENE2480X'
p5528
S'FRAXD'
p5529
sS'GENE318X'
p5530
S'NUDT2'
p5531
sS'GENE1543X'
p5532
S'CYP1A1'
p5533
sS'GENE3817X'
p5534
S'KLK2'
p5535
sS'GENE261X'
p5536
S'AMCN'
p5537
sS'GENE3078X'
p5538
S'CFHR1'
p5539
sS'GENE722X'
p5540
S'C4BPA'
p5541
sS'GENE1525X'
p5542
S'CXADR'
p5543
sS'GENE2869X'
p5544
S'GRK5'
p5545
sS'GENE374X'
p5546
S'AREG'
p5547
sS'GENE1430X'
p5548
S'CRYZP1'
p5549
sS'GENE321X'
p5550
S'APBA2'
p5551
sS'GENE1384X'
p5552
S'CRAT'
p5553
sS'GENE557X'
p5554
S'AXA1'
p5555
sS'GENE3684X'
p5556
S'ITGAM'
p5557
sS'GENE3326X'
p5558
S'HSP90AB1'
p5559
sS'GENE853X'
p5560
S'CATHL5'
p5561
sS'GENE1959X'
p5562
S'EGR2'
p5563
sS'GENE2134X'
p5564
S'EXTL1'
p5565
sS'GENE2161X'
p5566
S'F12'
p5567
sS'GENE972X'
p5568
S'CD74'
p5569
sS'GENE1022X'
p5570
S'CDK7'
p5571
sS'GENE1935X'
p5572
S'EEF1B4'
p5573
sS'GENE1055X'
p5574
S'CECR'
p5575
sS'GENE3020X'
p5576
S'H3F3A'
p5577
sS'GENE2656X'
p5578
S'GCY'
p5579
sS'GENE3068X'
p5580
S'HDGF'
p5581
sS'GENE1140X'
p5582
S'CHRNB1'
p5583
sS'GENE2586X'
p5584
S'GAL'
p5585
sS'GENE1195X'
p5586
S'CLK1'
p5587
sS'GENE2347X'
p5588
S'2347'
p5589
sS'GENE2150X'
p5590
S'F2RL1'
p5591
sS'GENE1013X'
p5592
S'CDH15'
p5593
sS'GENE1042X'
p5594
S'1042'
p5595
sS'GENE117X'
p5596
S'ADCYAP1R1'
p5597
sS'GENE1179X'
p5598
S'CLCA1'
p5599
sS'GENE3379X'
p5600
S'IBM2'
p5601
sS'GENE798X'
p5602
S'CALCP'
p5603
sS'GENE187X'
p5604
S'APLNR'
p5605
sS'GENE2022X'
p5606
S'ENG'
p5607
sS'GENE1095X'
p5608
S'CEACAMP7'
p5609
sS'GENE2172X'
p5610
S'FABP6'
p5611
sS'GENE1412X'
p5612
S'CRYBA2'
p5613
sS'GENE475X'
p5614
S'ATOX1'
p5615
sS'GENE3357X'
p5616
S'HTR2B'
p5617
sS'GENE1922X'
p5618
S'EEF1AL4'
p5619
sS'GENE3066X'
p5620
S'HDAC2'
p5621
sS'GENE3693X'
p5622
S'ITGB5'
p5623
sS'GENE1613X'
p5624
S'DAPK3'
p5625
sS'GENE2976X'
p5626
S'GTF3C2'
p5627
sS'GENE2546X'
p5628
S'G7P1'
p5629
sS'GENE3046X'
p5630
S'HBE1'
p5631
sS'GENE1177X'
p5632
S'STN'
p5633
sS'GENE3451X'
p5634
S'IFNA17'
p5635
sS'GENE3009X'
p5636
S'HIST1H1B'
p5637
sS'GENE190X'
p5638
S'NR0B1'
p5639
sS'GENE2209X'
p5640
S'FCGR1A'
p5641
sS'GENE2074X'
p5642
S'ERCC6'
p5643
sS'GENE1131X'
p5644
S'CHRM3'
p5645
sS'GENE2599X'
p5646
S'GAPDHL2'
p5647
sS'GENE2129X'
p5648
S'EVX2'
p5649
sS'GENE297X'
p5650
S'ANTP4'
p5651
sS'GENE2225X'
p5652
S'FDPSL1'
p5653
sS'GENE3322X'
p5654
S'HSP90AA3P'
p5655
sS'GENE2696X'
p5656
S'GIPR'
p5657
sS'GENE3614X'
p5658
S'IMPDH1'
p5659
sS'GENE899X'
p5660
S'CCNF'
p5661
sS'GENE915X'
p5662
S'CD3D'
p5663
sS'GENE1283X'
p5664
S'CTD'
p5665
sS'GENE395X'
p5666
S'ARHGAP6'
p5667
sS'GENE1573X'
p5668
S'CYP2J2'
p5669
sS'GENE946X'
p5670
S'SIGLEC6'
p5671
sS'GENE3246X'
p5672
S'3246'
p5673
sS'GENE661X'
p5674
S'POLR3D'
p5675
sS'GENE2361X'
p5676
S'FRA1B'
p5677
sS'GENE3925X'
p5678
S'STMN1'
p5679
sS'GENE329X'
p5680
S'BIRC2'
p5681
sS'GENE1977X'
p5682
S'EIF4E'
p5683
sS'GENE429X'
p5684
S'ASCL1'
p5685
sS'GENE3268X'
p5686
S'AGFG2'
p5687
sS'GENE966X'
p5688
S'CD59'
p5689
sS'GENE3741X'
p5690
S'KCNA5'
p5691
sS'GENE991X'
p5692
S'CDC20'
p5693
sS'GENE1831X'
p5694
S'TSC22D3'
p5695
sS'GENE3967X'
p5696
S'LGMD1A'
p5697
sS'GENE1879X'
p5698
S'EBF1'
p5699
sS'GENE884X'
p5700
S'884'
p5701
sS'GENE3523X'
p5702
S'IGKV3OR2-268'
p5703
sS'GENE3752X'
p5704
S'KCND3'
p5705
sS'GENE986X'
p5706
S'986'
p5707
sS'GENE510X'
p5708
S'510'
p5709
sS'GENE3388X'
p5710
S'ICR1'
p5711
sS'GENE3015X'
p5712
S'H2AFZ'
p5713
sS'GENE2092X'
p5714
S'ERVT2'
p5715
sS'GENE111X'
p5716
S'ADCY5'
p5717
sS'GENE901X'
p5718
S'CCNG2'
p5719
sS'GENE2271X'
p5720
S'FH'
p5721
sS'GENE3169X'
p5722
S'FOXA1'
p5723
sS'GENE1968X'
p5724
S'EIF2S3'
p5725
sS'GENE2207X'
p5726
S'FCER1G'
p5727
sS'GENE418X'
p5728
S'ART2P'
p5729
sS'GENE2674X'
p5730
S'GFRA1'
p5731
sS'GENE3730X'
p5732
S'KAL1'
p5733
sS'GENE1325X'
p5734
S'CORT'
p5735
sS'GENE3308X'
p5736
S'HSPA4'
p5737
sS'GENE1877X'
p5738
S'E4F1'
p5739
sS'GENE127X'
p5740
S'ADH4'
p5741
sS'GENE3051X'
p5742
S'HBZP1'
p5743
sS'GENE3084X'
p5744
S'NRG1'
p5745
sS'GENE1733X'
p5746
S'DIO1'
p5747
sS'GENE3364X'
p5748
S'HUS1'
p5749
sS'GENE819X'
p5750
S'CAMLG'
p5751
sS'GENE3331X'
p5752
S'HSPDP2'
p5753
sS'GENE862X'
p5754
S'RUNX1T1'
p5755
sS'GENE3386X'
p5756
S'ICAM4'
p5757
sS'GENE1917X'
p5758
S'EEF1A2'
p5759
sS'GENE1004X'
p5760
S'CDH6'
p5761
sS'GENE1957X'
p5762
S'EGI'
p5763
sS'GENE2081X'
p5764
S'ERN1'
p5765
sS'GENE2634X'
p5766
S'GBP2'
p5767
sS'GENE1779X'
p5768
S'DNCH2'
p5769
sS'GENE1702X'
p5770
S'1702'
p5771
sS'GENE1808X'
p5772
S'DPYSL2'
p5773
sS'GENE393X'
p5774
S'ARHGAP4'
p5775
sS'GENE1305X'
p5776
S'COL13A1'
p5777
sS'GENE1843X'
p5778
S'DUSP1'
p5779
sS'GENE2267X'
p5780
S'FGL1'
p5781
sS'GENE434X'
p5782
S'ASIP'
p5783
sS'GENE3709X'
p5784
S'ITPR2'
p5785
sS'GENE690X'
p5786
S'BTF3P11'
p5787
sS'GENE521X'
p5788
S'ATP5I'
p5789
sS'GENE1249X'
p5790
S'CMT2A'
p5791
sS'GENE1657X'
p5792
S'DMXL1'
p5793
sS'GENE1673X'
p5794
S'DEFB4A'
p5795
sS'GENE3125X'
p5796
S'HLA-DRB3'
p5797
sS'GENE2776X'
p5798
S'GNAQ'
p5799
sS'GENE1516X'
p5800
S'CTSLL1'
p5801
sS'GENE1780X'
p5802
S'DYNC1I1'
p5803
sS'GENE646X'
p5804
S'BNC1'
p5805
sS'GENE2802X'
p5806
S'GOLGA3'
p5807
sS'GENE2304X'
p5808
S'FOXE1'
p5809
sS'GENE1212X'
p5810
S'CLTB'
p5811
sS'GENE3149X'
p5812
S'HMGB3'
p5813
sS'GENE2288X'
p5814
S'FKBP4'
p5815
sS'GENE925X'
p5816
S'CD8A'
p5817
sS'GENE2513X'
p5818
S'FTLL1'
p5819
sS'GENE3621X'
p5820
S'ING1'
p5821
sS'GENE3929X'
p5822
S'LBP'
p5823
sS'GENE1294X'
p5824
S'COL7A1'
p5825
sS'GENE1991X'
p5826
S'ELANE'
p5827
sS'GENE1254X'
p5828
S'CMTX3'
p5829
sS'GENE1604X'
p5830
S'CD55'
p5831
sS'GENE1201X'
p5832
S'CLN3'
p5833
sS'GENE2516X'
p5834
S'NR5A1'
p5835
sS'GENE3821X'
p5836
S'KLRC1'
p5837
sS'GENE1644X'
p5838
S'DDC'
p5839
sS'GENE3478X'
p5840
S'IGES'
p5841
sS'GENE257X'
p5842
S'ALX3'
p5843
sS'GENE3645X'
p5844
S'INSRR'
p5845
sS'GENE596X'
p5846
S'BCL2'
p5847
sS'GENE3412X'
p5848
S'IDDM13'
p5849
sS'GENE3501X'
p5850
S'IGHG2'
p5851
sS'GENE1762X'
p5852
S'DMWD'
p5853
sS'GENE2000X'
p5854
S'ELF4'
p5855
sS'GENE2729X'
p5856
S'GCLC'
p5857
sS'GENE3291X'
p5858
S'HSD11B2'
p5859
sS'GENE3454X'
p5860
S'IFNAR1'
p5861
sS'GENE277X'
p5862
S'AMY1B'
p5863
sS'GENE1354X'
p5864
S'1354'
p5865
sS'GENE2711X'
p5866
S'GK7P'
p5867
sS'GENE1334X'
p5868
S'COX5BP5'
p5869
sS'GENE2310X'
p5870
S'FOXO3B'
p5871
sS'GENE3632X'
p5872
S'INPP5A'
p5873
sS'GENE3958X'
p5874
S'LGALS3'
p5875
sS'GENE3885X'
p5876
S'KRT34'
p5877
sS'GENE106X'
p5878
S'ADCP1'
p5879
sS'GENE3181X'
p5880
S'HNRNPA2B1'
p5881
sS'GENE1394X'
p5882
S'CRHR1'
p5883
sS'GENE1855X'
p5884
S'DVL1'
p5885
sS'GENE3907X'
p5886
S'LAMA1'
p5887
sS'GENE1637X'
p5888
S'DCR'
p5889
sS'GENE3574X'
p5890
S'IL7'
p5891
sS'GENE900X'
p5892
S'CCNG1'
p5893
sS'GENE3235X'
p5894
S'HOXD9'
p5895
sS'GENE948X'
p5896
S'CD36'
p5897
sS'GENE3763X'
p5898
S'KCNJ6'
p5899
sS'GENE3945X'
p5900
S'LDHB'
p5901
sS'GENE3910X'
p5902
S'LAMA4'
p5903
sS'GENE1982X'
p5904
S'EIF4G2'
p5905
sS'GENE3898X'
p5906
S'LAD1'
p5907
sS'GENE2240X'
p5908
S'FEOM1'
p5909
sS'GENE3530X'
p5910
S'IGKV1OR22-1'
p5911
sS'GENE2024X'
p5912
S'2024'
p5913
sS'GENE3476X'
p5914
S'IGBP1'
p5915
sS'GENE259X'
p5916
S'AMBP'
p5917
sS'GENE604X'
p5918
S'BCL6'
p5919
sS'GENE3992X'
p5920
S'FADS1'
p5921
sS'GENE3789X'
p5922
S'LCA3'
p5923
sS'GENE3843X'
p5924
S'IPO5'
p5925
sS'GENE57X'
p5926
S'57'
p5927
sS'GENE3703X'
p5928
S'STT3A'
p5929
sS'GENE2820X'
p5930
S'GPD2'
p5931
sS'GENE2875X'
p5932
S'GPT'
p5933
sS'GENE2458X'
p5934
S'FRA14C'
p5935
sS'GENE2391X'
p5936
S'FRA4D'
p5937
sS'GENE2937X'
p5938
S'GSS'
p5939
sS'GENE11X'
p5940
S'AACP'
p5941
sS'GENE3001X'
p5942
S'GZMA'
p5943
sS'GENE2783X'
p5944
S'GNB2'
p5945
sS'GENE1888X'
p5946
S'EBVS1'
p5947
sS'GENE2837X'
p5948
S'UTS2R'
p5949
sS'GENE4020X'
p5950
S'LPAL2'
p5951
sS'GENE2382X'
p5952
S'FRA2J'
p5953
sS'GENE97X'
p5954
S'ACYP1'
p5955
sS'GENE2470X'
p5956
S'FRA19B'
p5957
sS'GENE2561X'
p5958
S'GABRB2'
p5959
sS'GENE3598X'
p5960
S'IL13RA2'
p5961
sS'GENE1553X'
p5962
S'CYP2A13'
p5963
sS'GENE260X'
p5964
S'AMCD1'
p5965
sS'GENE1524X'
p5966
S'CX3CR1'
p5967
sS'GENE723X'
p5968
S'C4BPAL1'
p5969
sS'GENE2868X'
p5970
S'GRK4'
p5971
sS'GENE1414X'
p5972
S'CRYBB1'
p5973
sS'GENE2036X'
p5974
S'EPB41L1'
p5975
sS'GENE373X'
p5976
S'TRIM23'
p5977
sS'GENE322X'
p5978
S'APBB1'
p5979
sS'GENE1433X'
p5980
S'CSE'
p5981
sS'GENE2811X'
p5982
S'GP1BA'
p5983
sS'GENE2016X'
p5984
S'EMX1'
p5985
sS'GENE3974X'
p5986
S'LHON'
p5987
sS'GENE714X'
p5988
S'C1QC'
p5989
sS'GENE2412X'
p5990
S'FRA7E'
p5991
sS'GENE2438X'
p5992
S'FRA11A'
p5993
sS'GENE148X'
p5994
S'ADRA1A'
p5995
sS'GENE2758X'
p5996
S'GLYD'
p5997
sS'GENE1579X'
p5998
S'CYP4A11'
p5999
sS'GENE718X'
p6000
S'C3'
p6001
sS'GENE351X'
p6002
S'APP'
p6003
sS'GENE164X'
p6004
S'AP1G1'
p6005
sS'GENE3167X'
p6006
S'HMX2'
p6007
sS'GENE2734X'
p6008
S'GLG1'
p6009
sS'GENE2761X'
p6010
S'GM2AP1'
p6011
sS'GENE659X'
p6012
S'BMPR2'
p6013
sS'GENE827X'
p6014
S'CAPN6'
p6015
sS'GENE80X'
p6016
S'ACTG1P8'
p6017
sS'GENE581X'
p6018
S'BAX'
p6019
sS'GENE2859X'
p6020
S'GPR35'
p6021
sS'GENE342X'
p6022
S'APOC1P1'
p6023
sS'GENE1493X'
p6024
S'CTLA4'
p6025
sS'GENE335X'
p6026
S'APOA1'
p6027
sS'GENE3794X'
p6028
S'KFSD'
p6029
sS'GENE3107X'
p6030
S'HLA-C'
p6031
sS'GENE2790X'
p6032
S'GNG10'
p6033
sS'GENE1348X'
p6034
S'COX7A2P2'
p6035
sS'GENE2605X'
p6036
S'GAPDHL8'
p6037
sS'GENE1230X'
p6038
S'CCR1'
p6039
sS'GENE1668X'
p6040
S'DEFA3'
p6041
sS'GENE3850X'
p6042
S'KRT3'
p6043
sS'GENE2572X'
p6044
S'GAD2'
p6045
sS'GENE1540X'
p6046
S'CYLD'
p6047
sS'GENE211X'
p6048
S'ALAS1'
p6049
sS'GENE3737X'
p6050
S'KCNA2'
p6051
sS'GENE2175X'
p6052
S'FANCA'
p6053
sS'GENE1030X'
p6054
S'CDKN2B'
p6055
sS'GENE1411X'
p6056
S'CRYBA1'
p6057
sS'GENE15X'
p6058
S'AANAT'
p6059
sS'GENE1921X'
p6060
S'EEF1AL3'
p6061
sS'GENE3067X'
p6062
S'HDC'
p6063
sS'GENE2988X'
p6064
S'GUK2'
p6065
sS'GENE3692X'
p6066
S'EIF6'
p6067
sS'GENE2119X'
p6068
S'ETV5'
p6069
sS'GENE781X'
p6070
S'CACNA2D1'
p6071
sS'GENE3548X'
p6072
S'IHG1'
p6073
sS'GENE2979X'
p6074
S'GUCA1B'
p6075
sS'GENE3047X'
p6076
S'HBG1'
p6077
sS'GENE3740X'
p6078
S'KCNA4L'
p6079
sS'GENE967X'
p6080
S'CD63'
p6081
sS'GENE1488X'
p6082
S'CTBP2'
p6083
sS'GENE284X'
p6084
S'ANGPT1'
p6085
sS'GENE2208X'
p6086
S'FCER2'
p6087
sS'GENE2075X'
p6088
S'ERCC8'
p6089
sS'GENE935X'
p6090
S'CD24P1'
p6091
sS'GENE4002X'
p6092
S'LMNL1'
p6093
sS'GENE290X'
p6094
S'ANPEP'
p6095
sS'GENE3437X'
p6096
S'IFIT3'
p6097
sS'GENE1680X'
p6098
S'DFN4'
p6099
sS'GENE2224X'
p6100
S'FDPS'
p6101
sS'GENE2697X'
p6102
S'GJA1'
p6103
sS'GENE66X'
p6104
S'ACTBP6'
p6105
sS'GENE480X'
p6106
S'ATP1A4'
p6107
sS'GENE3872X'
p6108
S'KRT17'
p6109
sS'GENE3747X'
p6110
S'KCNC2'
p6111
sS'GENE2550X'
p6112
S'GABBR1'
p6113
sS'GENE3546X'
p6114
S'IGLV@'
p6115
sS'GENE2505X'
p6116
S'FTHL13'
p6117
sS'GENE1895X'
p6118
S'ED#'
p6119
sS'GENE1533X'
p6120
S'CYB5AP5'
p6121
sS'GENE752X'
p6122
S'FMNL1'
p6123
sS'GENE1114X'
p6124
S'CHGB'
p6125
sS'GENE2529X'
p6126
S'FUT7'
p6127
sS'GENE2957X'
p6128
S'GTF2A1'
p6129
sS'GENE613X'
p6130
S'BCR'
p6131
sS'GENE2405X'
p6132
S'FRA6E'
p6133
sS'GENE2490X'
p6134
S'FSHMD1B'
p6135
sS'GENE2915X'
p6136
S'GRM5'
p6137
sS'GENE2518X'
p6138
S'FUCA1P1'
p6139
sS'GENE2940X'
p6140
S'GSTA3'
p6141
sS'GENE2612X'
p6142
S'GAPDHL15'
p6143
sS'GENE60X'
p6144
S'ACTB'
p6145
sS'GENE1109X'
p6146
S'AKR1C4'
p6147
sS'GENE1154X'
p6148
S'CISH'
p6149
sS'GENE364X'
p6150
S'AQP7'
p6151
sS'GENE1475X'
p6152
S'CSTA'
p6153
sS'GENE461X'
p6154
S'ASVS1'
p6155
sS'GENE1420X'
p6156
S'CRYGC'
p6157
sS'GENE3555X'
p6158
S'3555'
p6159
sS'GENE2997X'
p6160
S'GYS1'
p6161
sS'GENE574X'
p6162
S'BAGE'
p6163
sS'GENE59X'
p6164
S'ACTA2'
p6165
sS'GENE2897X'
p6166
S'GRIK1'
p6167
sS'GENE3816X'
p6168
S'KLK1'
p6169
sS'GENE2420X'
p6170
S'FRDA2'
p6171
sS'GENE2206X'
p6172
S'MS4A2'
p6173
sS'GENE1914X'
p6174
S'EEC2'
p6175
sS'GENE2675X'
p6176
S'GFRA2'
p6177
sS'GENE419X'
p6178
S'ART3'
p6179
sS'GENE3731X'
p6180
S'KAL2'
p6181
sS'GENE1453X'
p6182
S'CSNK1D'
p6183
sS'GENE1630X'
p6184
S'DCC'
p6185
sS'GENE2715X'
p6186
S'GKP5'
p6187
sS'GENE2667X'
p6188
S'GDI2P1'
p6189
sS'GENE1876X'
p6190
S'E2F6'
p6191
sS'GENE2359X'
p6192
S'FPR3'
p6193
sS'GENE788X'
p6194
S'SLC25A20'
p6195
sS'GENE3969X'
p6196
S'3969'
p6197
sS'GENE1043X'
p6198
S'CD52'
p6199
sS'GENE3050X'
p6200
S'HBZ'
p6201
sS'GENE3085X'
p6202
S'HMG1P'
p6203
sS'GENE426X'
p6204
S'AS'
p6205
sS'GENE1765X'
p6206
S'DNAH2'
p6207
sS'GENE1816X'
p6208
S'DRD5'
p6209
sS'GENE897X'
p6210
S'CCND3P'
p6211
sS'GENE3363X'
p6212
S'HTR7'
p6213
sS'GENE861X'
p6214
S'RUNX1'
p6215
sS'GENE3332X'
p6216
S'HSPD1P3'
p6217
sS'GENE3499X'
p6218
S'IGHEP2'
p6219
sS'GENE1005X'
p6220
S'CDH7'
p6221
sS'GENE2080X'
p6222
S'2080'
p6223
sS'GENE1954X'
p6224
S'MEGF8'
p6225
sS'GENE2635X'
p6226
S'GBP3'
p6227
sS'GENE1809X'
p6228
S'DPYSL3'
p6229
sS'GENE1701X'
p6230
S'1701'
p6231
sS'GENE124X'
p6232
S'ADH1A'
p6233
sS'GENE2266X'
p6234
S'FGG'
p6235
sS'GENE2677X'
p6236
S'GGCX'
p6237
sS'GENE3708X'
p6238
S'ITPR1'
p6239
sS'GENE435X'
p6240
S'ASL'
p6241
sS'GENE691X'
p6242
S'BTF3L2'
p6243
sS'GENE2657X'
p6244
S'GDF1'
p6245
sS'GENE3685X'
p6246
S'ITGAV'
p6247
sS'GENE2388X'
p6248
S'FRA4A'
p6249
sS'GENE773X'
p6250
S'CACNA1A'
p6251
sS'GENE3420X'
p6252
S'IDH3B'
p6253
sS'GENE850X'
p6254
S'CATHL2'
p6255
sS'GENE3497X'
p6256
S'IGHE'
p6257
sS'GENE3487X'
p6258
S'IGFBP4'
p6259
sS'GENE2598X'
p6260
S'GAPDHL1'
p6261
sS'GENE1708X'
p6262
S'STRC'
p6263
sS'GENE1132X'
p6264
S'CHRM4'
p6265
sS'GENE1189X'
p6266
S'CLCS'
p6267
sS'GENE2137X'
p6268
S'EXTL3'
p6269
sS'GENE1023X'
p6270
S'CDL2'
p6271
sS'GENE3416X'
p6272
S'IDE'
p6273
sS'GENE1054X'
p6274
S'CEBPG'
p6275
sS'GENE3021X'
p6276
S'H3F3B'
p6277
sS'GENE1936X'
p6278
S'EEF1D'
p6279
sS'GENE1094X'
p6280
S'CEACAMP6'
p6281
sS'GENE3069X'
p6282
S'HDLBP'
p6283
sS'GENE2587X'
p6284
S'GALR1'
p6285
sS'GENE626X'
p6286
S'BDMR'
p6287
sS'GENE686X'
p6288
S'BTD'
p6289
sS'GENE2344X'
p6290
S'FOLH2'
p6291
sS'GENE2157X'
p6292
S'F8'
p6293
sS'GENE1012X'
p6294
S'CDH13'
p6295
sS'GENE536X'
p6296
S'536'
p6297
sS'GENE829X'
p6298
S'CAPZA1'
p6299
sS'GENE180X'
p6300
S'AGRN'
p6301
sS'GENE673X'
p6302
S'BRAF'
p6303
sS'GENE3959X'
p6304
S'LGALS3BP'
p6305
sS'GENE2313X'
p6306
S'FLI1'
p6307
sS'GENE500X'
p6308
S'ATP5A1P5'
p6309
sS'GENE3668X'
p6310
S'IRS3L'
p6311
sS'GENE3738X'
p6312
S'KCNA3'
p6313
sS'GENE987X'
p6314
S'LRBA'
p6315
sS'GENE1395X'
p6316
S'CRHR2'
p6317
sS'GENE1727X'
p6318
S'CYB5R3'
p6319
sS'GENE1322X'
p6320
S'CORD5'
p6321
sS'GENE3906X'
p6322
S'LALBA'
p6323
sS'GENE3604X'
p6324
S'TNFRSF9'
p6325
sS'GENE384X'
p6326
S'ARG2'
p6327
sS'GENE3234X'
p6328
S'HOXD8'
p6329
sS'GENE2816X'
p6330
S'GPB'
p6331
sS'GENE3531X'
p6332
S'IGKV1OR-1'
p6333
sS'GENE3762X'
p6334
S'KCNJ5'
p6335
sS'GENE1279X'
p6336
S'COL1AR'
p6337
sS'GENE3584X'
p6338
S'IL9RP3'
p6339
sS'GENE921X'
p6340
S'CD5'
p6341
sS'GENE3944X'
p6342
S'LDHAL5'
p6343
sS'GENE3852X'
p6344
S'KRT5'
p6345
sS'GENE3911X'
p6346
S'LAMA5'
p6347
sS'GENE2199X'
p6348
S'FBLN2'
p6349
sS'GENE3180X'
p6350
S'3180'
p6351
sS'GENE107X'
p6352
S'ADCY1'
p6353
sS'GENE2247X'
p6354
S'FGF2'
p6355
sS'GENE3241X'
p6356
S'HPCAL1'
p6357
sS'GENE1660X'
p6358
S'DHX9'
p6359
sS'GENE1651X'
p6360
S'1651'
p6361
sS'GENE3966X'
p6362
S'LGCR'
p6363
sS'GENE847X'
p6364
S'CAT'
p6365
sS'GENE620X'
p6366
S'BCYRN1P2'
p6367
sS'GENE3613X'
p6368
S'IMPA2'
p6369
sS'GENE1687X'
p6370
S'DFNA5'
p6371
sS'GENE3934X'
p6372
S'LCN2'
p6373
sS'GENE1280X'
p6374
S'COL2A1'
p6375
sS'GENE848X'
p6376
S'CATHL1'
p6377
sS'GENE947X'
p6378
S'CD34'
p6379
sS'GENE660X'
p6380
S'BMX'
p6381
sS'GENE1304X'
p6382
S'COL12A1L'
p6383
sS'GENE3374X'
p6384
S'3374'
p6385
sS'GENE3269X'
p6386
S'HRH1'
p6387
sS'GENE1978X'
p6388
S'EIF4EBP1'
p6389
sS'GENE3212X'
p6390
S'HOXB2'
p6391
sS'GENE2450X'
p6392
S'FRA12C'
p6393
sS'GENE990X'
p6394
S'CDC6'
p6395
sS'GENE1830X'
p6396
S'DSG3'
p6397
sS'GENE92X'
p6398
S'ACVR2A'
p6399
sS'GENE179X'
p6400
S'AGMX2'
p6401
sS'GENE1878X'
p6402
S'E11S'
p6403
sS'GENE887X'
p6404
S'CCKBR'
p6405
sS'GENE1266X'
p6406
S'CNN3'
p6407
sS'GENE325X'
p6408
S'APCS'
p6409
sS'GENE3522X'
p6410
S'3522'
p6411
sS'GENE3753X'
p6412
S'KCNE1'
p6413
sS'GENE1659X'
p6414
S'DHX8'
p6415
sS'GENE2362X'
p6416
S'FRA1C'
p6417
sS'GENE517X'
p6418
S'ATP5G2'
p6419
sS'GENE3002X'
p6420
S'GZMB'
p6421
sS'GENE1374X'
p6422
S'CPT1A'
p6423
sS'GENE2093X'
p6424
S'ERVT3'
p6425
sS'GENE110X'
p6426
S'ADCY4'
p6427
sS'GENE1331X'
p6428
S'COX5BP2'
p6429
sS'GENE2197X'
p6430
S'FAU'
p6431
sS'GENE34X'
p6432
S'ACADM'
p6433
sS'GENE2413X'
p6434
S'FRA7F'
p6435
sS'GENE3517X'
p6436
S'RBPJP2'
p6437
sS'GENE149X'
p6438
S'149'
p6439
sS'GENE595X'
p6440
S'CCND1'
p6441
sS'GENE3646X'
p6442
S'EIF3E'
p6443
sS'GENE800X'
p6444
S'CALD1'
p6445
sS'GENE246X'
p6446
S'ALOX15'
p6447
sS'GENE350X'
p6448
S'APOH'
p6449
sS'GENE3166X'
p6450
S'HMX1'
p6451
sS'GENE165X'
p6452
S'AEBP1'
p6453
sS'GENE2733X'
p6454
S'GLE1'
p6455
sS'GENE3495X'
p6456
S'IGHD'
p6457
sS'GENE74X'
p6458
S'ACTG1P2'
p6459
sS'GENE212X'
p6460
S'ALAS2'
p6461
sS'GENE772X'
p6462
S'CACD'
p6463
sS'GENE3468X'
p6464
S'IFNWP2'
p6465
sS'GENE582X'
p6466
S'BBS1'
p6467
sS'GENE2856X'
p6468
S'GPR33'
p6469
sS'GENE912X'
p6470
S'CD1D'
p6471
sS'GENE343X'
p6472
S'AQP8'
p6473
sS'GENE3795X'
p6474
S'KHK'
p6475
sS'GENE442X'
p6476
S'ASNSP2'
p6477
sS'GENE3106X'
p6478
S'HLA-B'
p6479
sS'GENE3808X'
p6480
S'KIR2DS3'
p6481
sS'GENE3984X'
p6482
S'LIMK1'
p6483
sS'GENE1511X'
p6484
S'CTSG'
p6485
sS'GENE1669X'
p6486
S'DEFA4'
p6487
sS'GENE2762X'
p6488
S'GMDS'
p6489
sS'GENE1237X'
p6490
S'CCR8'
p6491
sS'GENE3853X'
p6492
S'KRT6A'
p6493
sS'GENE1297X'
p6494
S'COL9A1'
p6495
sS'GENE3124X'
p6496
S'HLA-DRB2'
p6497
sS'GENE1596X'
p6498
S'ADAM3B'
p6499
sS'GENE2250X'
p6500
S'FGF5'
p6501
sS'GENE2775X'
p6502
S'GNAO1'
p6503
sS'GENE1787X'
p6504
S'TRDMT1'
p6505
sS'GENE645X'
p6506
S'BLVRB'
p6507
sS'GENE864X'
p6508
S'RUNX3'
p6509
sS'GENE970X'
p6510
S'CD70'
p6511
sS'GENE3148X'
p6512
S'HMGB2'
p6513
sS'GENE1215X'
p6514
S'CMA1'
p6515
sS'GENE2287X'
p6516
S'FKBP3'
p6517
sS'GENE3928X'
p6518
S'3928'
p6519
sS'GENE3626X'
p6520
S'INHBC'
p6521
sS'GENE3659X'
p6522
S'IRF1'
p6523
sS'GENE3666X'
p6524
S'3666'
p6525
sS'GENE1605X'
p6526
S'DAG1'
p6527
sS'GENE1996X'
p6528
S'ELAVL4'
p6529
sS'GENE3888X'
p6530
S'KRT82'
p6531
sS'GENE895X'
p6532
S'CCND2P'
p6533
sS'GENE842X'
p6534
S'CASP9'
p6535
sS'GENE230X'
p6536
S'ALDOC'
p6537
sS'GENE2298X'
p6538
S'FOXD4'
p6539
sS'GENE2305X'
p6540
S'FOXM1'
p6541
sS'GENE3979X'
p6542
S'LIG2'
p6543
sS'GENE3500X'
p6544
S'IGHG1'
p6545
sS'GENE331X'
p6546
S'XIAP'
p6547
sS'GENE2019X'
p6548
S'EN1'
p6549
sS'GENE3290X'
p6550
S'HSD11B1'
p6551
sS'GENE1446X'
p6552
S'CSN1S1'
p6553
sS'GENE229X'
p6554
S'ALDOB'
p6555
sS'GENE1492X'
p6556
S'CTHM'
p6557
sS'GENE1355X'
p6558
S'COX15'
p6559
sS'GENE3457X'
p6560
S'IFNB3'
p6561
sS'GENE2644X'
p6562
S'GCHFR'
p6563
sS'GENE3411X'
p6564
S'IDDM12'
p6565
sS'GENE2909X'
p6566
S'ARHGAP35'
p6567
sS'GENE3871X'
p6568
S'KRT16P1'
p6569
sS'GENE1894X'
p6570
S'ECT2'
p6571
sS'GENE1443X'
p6572
S'CSH2'
p6573
sS'GENE2058X'
p6574
S'EPRS'
p6575
sS'GENE1115X'
p6576
S'1115'
p6577
sS'GENE1534X'
p6578
S'CYB561'
p6579
sS'GENE334X'
p6580
S'APLP2'
p6581
sS'GENE1469X'
p6582
S'CST1'
p6583
sS'GENE2121X'
p6584
S'EVC'
p6585
sS'GENE2956X'
p6586
S'MSH6'
p6587
sS'GENE3815X'
p6588
S'KIT'
p6589
sS'GENE2526X'
p6590
S'FUT4'
p6591
sS'GENE614X'
p6592
S'BCRL2'
p6593
sS'GENE12X'
p6594
S'SERPINA3'
p6595
sS'GENE2404X'
p6596
S'FRA6D'
p6597
sS'GENE2841X'
p6598
S'GPR18'
p6599
sS'GENE2894X'
p6600
S'GRID1'
p6601
sS'GENE2491X'
p6602
S'CENPI'
p6603
sS'GENE2914X'
p6604
S'GRM4'
p6605
sS'GENE63X'
p6606
S'ACTBP3'
p6607
sS'GENE2941X'
p6608
S'GSTA4'
p6609
sS'GENE1108X'
p6610
S'CHD4'
p6611
sS'GENE2878X'
p6612
S'GPX3'
p6613
sS'GENE1474X'
p6614
S'CST6'
p6615
sS'GENE365X'
p6616
S'365'
p6617
sS'GENE1421X'
p6618
S'CRYGD'
p6619
sS'GENE460X'
p6620
S'ASTN1'
p6621
sS'GENE3433X'
p6622
S'IFIT2'
p6623
sS'GENE2996X'
p6624
S'GYPE'
p6625
sS'GENE3556X'
p6626
S'IL1RAP'
p6627
sS'GENE577X'
p6628
S'BAI3'
p6629
sS'GENE2936X'
p6630
S'GSR'
p6631
sS'GENE2023X'
p6632
S'ENO1'
p6633
sS'GENE708X'
p6634
S'C1QBP'
p6635
sS'GENE3475X'
p6636
S'IFRD1'
p6637
sS'GENE3993X'
p6638
S'LLGL2'
p6639
sS'GENE3788X'
p6640
S'KCNS2'
p6641
sS'GENE2724X'
p6642
S'GLC1D'
p6643
sS'GENE2793X'
p6644
S'GNGT2'
p6645
sS'GENE2459X'
p6646
S'FRA15A'
p6647
sS'GENE2390X'
p6648
S'FRA4C'
p6649
sS'GENE2876X'
p6650
S'GPX1'
p6651
sS'GENE1432X'
p6652
S'MAPK14'
p6653
sS'GENE323X'
p6654
S'APBB2'
p6655
sS'GENE3111X'
p6656
S'HLA-DOA'
p6657
sS'GENE703X'
p6658
S'703'
p6659
sS'GENE1889X'
p6660
S'ECE1'
p6661
sS'GENE2780X'
p6662
S'GNAT2'
p6663
sS'GENE90X'
p6664
S'ACVR1'
p6665
sS'GENE2830X'
p6666
S'GPR6'
p6667
sS'GENE2383X'
p6668
S'FRA2K'
p6669
sS'GENE4023X'
p6670
S'LPL'
p6671
sS'GENE1220X'
p6672
S'CMD1D'
p6673
sS'GENE3840X'
p6674
S'KPNA4'
p6675
sS'GENE2566X'
p6676
S'GABRG2'
p6677
sS'GENE263X'
p6678
S'AMDP1'
p6679
sS'GENE1550X'
p6680
S'CYP2A7P1'
p6681
sS'GENE3419X'
p6682
S'IDH3A'
p6683
sS'GENE372X'
p6684
S'ARCN1'
p6685
sS'GENE1937X'
p6686
S'EEF1G'
p6687
sS'GENE2745X'
p6688
S'GLRX'
p6689
sS'GENE3022X'
p6690
S'H4F2'
p6691
sS'GENE2650X'
p6692
S'GCNT1'
p6693
sS'GENE555X'
p6694
S'AVR'
p6695
sS'GENE3686X'
p6696
S'ITGAW'
p6697
sS'GENE3353X'
p6698
S'HTR1DP1'
p6699
sS'GENE3008X'
p6700
S'HIST1H1E'
p6701
sS'GENE3496X'
p6702
S'3496'
p6703
sS'GENE851X'
p6704
S'CATHL3'
p6705
sS'GENE2531X'
p6706
S'KDSR'
p6707
sS'GENE2076X'
p6708
S'ERCM1'
p6709
sS'GENE1133X'
p6710
S'CHRM5'
p6711
sS'GENE1188X'
p6712
S'CLCNKB'
p6713
sS'GENE2078X'
p6714
S'ERG'
p6715
sS'GENE2136X'
p6716
S'EXTL2P'
p6717
sS'GENE1020X'
p6718
S'CDK5'
p6719
sS'GENE1068X'
p6720
S'CETN1'
p6721
sS'GENE2218X'
p6722
S'FKTN'
p6723
sS'GENE72X'
p6724
S'ACTG2'
p6725
sS'GENE1142X'
p6726
S'CHRNB3'
p6727
sS'GENE2588X'
p6728
S'GALNS'
p6729
sS'GENE685X'
p6730
S'BTC'
p6731
sS'GENE2345X'
p6732
S'FNZ'
p6733
sS'GENE2156X'
p6734
S'F7R'
p6735
sS'GENE2669X'
p6736
S'GEM'
p6737
sS'GENE2702X'
p6738
S'GJA5'
p6739
sS'GENE539X'
p6740
S'ATP5O'
p6741
sS'GENE2330X'
p6742
S'FMO5'
p6743
sS'GENE828X'
p6744
S'CAPS'
p6745
sS'GENE181X'
p6746
S'AGRP'
p6747
sS'GENE2174X'
p6748
S'FABP9'
p6749
sS'GENE1410X'
p6750
S'CRYAB'
p6751
sS'GENE477X'
p6752
S'ATP1A2'
p6753
sS'GENE1033X'
p6754
S'CDKN3'
p6755
sS'GENE1920X'
p6756
S'EEF1A1P4'
p6757
sS'GENE693X'
p6758
S'BTF3P1'
p6759
sS'GENE1031X'
p6760
S'CDKN2C'
p6761
sS'GENE1155X'
p6762
S'TBCB'
p6763
sS'GENE2118X'
p6764
S'ETV4'
p6765
sS'GENE1267X'
p6766
S'CNP'
p6767
sS'GENE2978X'
p6768
S'GUCA1A'
p6769
sS'GENE2540X'
p6770
S'G6PDL'
p6771
sS'GENE3044X'
p6772
S'HBBP1'
p6773
sS'GENE2508X'
p6774
S'FTH1P16'
p6775
sS'GENE548X'
p6776
S'548'
p6777
sS'GENE396X'
p6778
S'ARHGDIA'
p6779
sS'GENE3691X'
p6780
S'ITGB4'
p6781
sS'GENE3340X'
p6782
S'NDST1'
p6783
sS'GENE4001X'
p6784
S'LMNB1'
p6785
sS'GENE2227X'
p6786
S'FDPSP3'
p6787
sS'GENE1871X'
p6788
S'E2F3'
p6789
sS'GENE1833X'
p6790
S'EPYC'
p6791
sS'GENE3961X'
p6792
S'LGALS5'
p6793
sS'GENE3612X'
p6794
S'IMPA1'
p6795
sS'GENE2311X'
p6796
S'FOXO1B'
p6797
sS'GENE2746X'
p6798
S'GLUD1'
p6799
sS'GENE1684X'
p6800
S'DFN8'
p6801
sS'GENE1281X'
p6802
S'COL3A1'
p6803
sS'GENE119X'
p6804
S'ADD2'
p6805
sS'GENE3718X'
p6806
S'JAK3'
p6807
sS'GENE1700X'
p6808
S'1700'
p6809
sS'GENE3375X'
p6810
S'IAPP'
p6811
sS'GENE826X'
p6812
S'CAPNS1'
p6813
sS'GENE1303X'
p6814
S'COL12A1'
p6815
sS'GENE391X'
p6816
S'RHOG'
p6817
sS'GENE1979X'
p6818
S'EIF4EBP2'
p6819
sS'GENE939X'
p6820
S'CD27'
p6821
sS'GENE234X'
p6822
S'AKR1B1P3'
p6823
sS'GENE964X'
p6824
S'964'
p6825
sS'GENE3211X'
p6826
S'HOXB1'
p6827
sS'GENE3423X'
p6828
S'IDS'
p6829
sS'GENE1746X'
p6830
S'DLX2'
p6831
sS'GENE806X'
p6832
S'CALM2P2'
p6833
sS'GENE1314X'
p6834
S'COPA'
p6835
sS'GENE1699X'
p6836
S'DFNB7'
p6837
sS'GENE663X'
p6838
S'BNIP2'
p6839
sS'GENE774X'
p6840
S'CACNA1B'
p6841
sS'GENE2363X'
p6842
S'FRA1D'
p6843
sS'GENE1753X'
p6844
S'DM2'
p6845
sS'GENE516X'
p6846
S'ATP5G1'
p6847
sS'GENE927X'
p6848
S'CD8BP'
p6849
sS'GENE2090X'
p6850
S'ESA4'
p6851
sS'GENE3333X'
p6852
S'HSPDP4'
p6853
sS'GENE860X'
p6854
S'RUNX2'
p6855
sS'GENE105X'
p6856
S'ADARB2'
p6857
sS'GENE1915X'
p6858
S'EEF1A1'
p6859
sS'GENE2205X'
p6860
S'FCER1A'
p6861
sS'GENE416X'
p6862
S'ARSF'
p6863
sS'GENE3275X'
p6864
S'PRMT2'
p6865
sS'GENE3732X'
p6866
S'CD82'
p6867
sS'GENE809X'
p6868
S'CALML1'
p6869
sS'GENE2358X'
p6870
S'FPR2'
p6871
sS'GENE1011X'
p6872
S'CDH12P2'
p6873
sS'GENE1044X'
p6874
S'CDX1'
p6875
sS'GENE3053X'
p6876
S'SERPIND1'
p6877
sS'GENE2621X'
p6878
S'GAS6'
p6879
sS'GENE1764X'
p6880
S'DNAH1'
p6881
sS'GENE2717X'
p6882
S'GLA'
p6883
sS'GENE1731X'
p6884
S'SEPT1'
p6885
sS'GENE766X'
p6886
S'CA7'
p6887
sS'GENE3362X'
p6888
S'HTR6'
p6889
sS'GENE1815X'
p6890
S'DRD4'
p6891
sS'GENE917X'
p6892
S'CD3G'
p6893
sS'GENE3498X'
p6894
S'IGHEP1'
p6895
sS'GENE2128X'
p6896
S'EVX1'
p6897
sS'GENE1571X'
p6898
S'CYP2E1'
p6899
sS'GENE3712X'
p6900
S'IVD'
p6901
sS'GENE1955X'
p6902
S'MEGF9'
p6903
sS'GENE2083X'
p6904
S'ERPL2'
p6905
sS'GENE2632X'
p6906
S'GBE1'
p6907
sS'GENE789X'
p6908
S'SLC25A20P1'
p6909
sS'GENE3931X'
p6910
S'LCAT'
p6911
sS'GENE125X'
p6912
S'ADH1B'
p6913
sS'GENE1059X'
p6914
S'CENPB'
p6915
sS'GENE2269X'
p6916
S'FGS1'
p6917
sS'GENE436X'
p6918
S'ASLP1'
p6919
sS'GENE3259X'
p6920
S'HPV6AI1'
p6921
sS'GENE692X'
p6922
S'BTF3L3'
p6923
sS'GENE3658X'
p6924
S'IREB2'
p6925
sS'GENE3822X'
p6926
S'KLRC2'
p6927
sS'GENE1296X'
p6928
S'COL8A2'
p6929
sS'GENE171X'
p6930
S'AFD1'
p6931
sS'GENE3190X'
p6932
S'HNRNPK'
p6933
sS'GENE2251X'
p6934
S'FGF6'
p6935
sS'GENE3127X'
p6936
S'HLA-DRB5'
p6937
sS'GENE2774X'
p6938
S'GNAL'
p6939
sS'GENE1786X'
p6940
S'DNMT1'
p6941
sS'GENE2014X'
p6942
S'EMP3'
p6943
sS'GENE1619X'
p6944
S'DBCCR1'
p6945
sS'GENE1214X'
p6946
S'1214'
p6947
sS'GENE518X'
p6948
S'ATP5G3'
p6949
sS'GENE3147X'
p6950
S'HMG1L'
p6951
sS'GENE2286X'
p6952
S'FKBP2'
p6953
sS'GENE235X'
p6954
S'ALDRL4'
p6955
sS'GENE3627X'
p6956
S'CXCL10'
p6957
sS'GENE3590X'
p6958
S'IL11RA'
p6959
sS'GENE3456X'
p6960
S'IFNB1'
p6961
sS'GENE3954X'
p6962
S'LETM1'
p6963
sS'GENE3667X'
p6964
S'IRS1'
p6965
sS'GENE1356X'
p6966
S'CP'
p6967
sS'GENE1750X'
p6968
S'DLX6'
p6969
sS'GENE1997X'
p6970
S'ELF1'
p6971
sS'GENE3889X'
p6972
S'KRT83'
p6973
sS'GENE3823X'
p6974
S'KLRC3'
p6975
sS'GENE3158X'
p6976
S'HMGCS2'
p6977
sS'GENE2299X'
p6978
S'FOXI1'
p6979
sS'GENE644X'
p6980
S'BLVRA'
p6981
sS'GENE2302X'
p6982
S'FOXJ1'
p6983
sS'GENE1797X'
p6984
S'DOM3Z'
p6985
sS'GENE3297X'
p6986
S'HSF1'
p6987
sS'GENE228X'
p6988
S'ALDOAP2'
p6989
sS'GENE902X'
p6990
S'CCNH'
p6991
sS'GENE3237X'
p6992
S'HOXD11'
p6993
sS'GENE585X'
p6994
S'BBS4'
p6995
sS'GENE670X'
p6996
S'BPHL'
p6997
sS'GENE2312X'
p6998
S'FLG'
p6999
sS'GENE501X'
p7000
S'ALDH7A1'
p7001
sS'GENE3669X'
p7002
S'ISG20'
p7003
sS'GENE3946X'
p7004
S'LDHBL1'
p7005
sS'GENE438X'
p7006
S'ASMT'
p7007
sS'GENE3257X'
p7008
S'HPS1'
p7009
sS'GENE9X'
p7010
S'NAT1'
p7011
sS'GENE3750X'
p7012
S'KCND1'
p7013
sS'GENE980X'
p7014
S'CDAN2'
p7015
sS'GENE1820X'
p7016
S'ARID3A'
p7017
sS'GENE3972X'
p7018
S'LHB'
p7019
sS'GENE3605X'
p7020
S'IL17A'
p7021
sS'GENE3905X'
p7022
S'LAKLG'
p7023
sS'GENE1452X'
p7024
S'CSNK1A1'
p7025
sS'GENE3571X'
p7026
S'IL6RL1'
p7027
sS'GENE2335X'
p7028
S'FN1'
p7029
sS'GENE1278X'
p7030
S'COL1A2'
p7031
sS'GENE3536X'
p7032
S'IGLC@'
p7033
sS'GENE494X'
p7034
S'ATP3'
p7035
sS'GENE3761X'
p7036
S'KCNJ4'
p7037
sS'GENE2010X'
p7038
S'EMD'
p7039
sS'GENE2198X'
p7040
S'FAUNA@'
p7041
sS'GENE3943X'
p7042
S'LDHAL4'
p7043
sS'GENE3912X'
p7044
S'LAMB1'
p7045
sS'GENE1827X'
p7046
S'RCAN1'
p7047
sS'GENE100X'
p7048
S'ADA'
p7049
sS'GENE274X'
p7050
S'BIN1'
p7051
sS'GENE2246X'
p7052
S'FGF1'
p7053
sS'GENE1565X'
p7054
S'CYP2D6'
p7055
sS'GENE2042X'
p7056
S'EPHA3'
p7057
sS'GENE2629X'
p7058
S'GBA'
p7059
sS'GENE2931X'
p7060
S'GSK3A'
p7061
sS'GENE2618X'
p7062
S'GART'
p7063
sS'GENE3474X'
p7064
S'IFNWP19'
p7065
sS'GENE709X'
p7066
S'C1HR'
p7067
sS'GENE3578X'
p7068
S'IL9'
p7069
sS'GENE3994X'
p7070
S'3994'
p7071
sS'GENE271X'
p7072
S'AMPD2'
p7073
sS'GENE3809X'
p7074
S'KIR2DS4'
p7075
sS'GENE2006X'
p7076
S'ELN'
p7077
sS'GENE2725X'
p7078
S'GLC1E'
p7079
sS'GENE3105X'
p7080
S'HLA-A'
p7081
sS'GENE2792X'
p7082
S'GNGT1'
p7083
sS'GENE1213X'
p7084
S'CLTC'
p7085
sS'GENE2877X'
p7086
S'GPX2'
p7087
sS'GENE3586X'
p7088
S'IL10'
p7089
sS'GENE75X'
p7090
S'ACTG1P3'
p7091
sS'GENE2393X'
p7092
S'FRA5A'
p7093
sS'GENE371X'
p7094
S'ARCN2'
p7095
sS'GENE324X'
p7096
S'APC'
p7097
sS'GENE1435X'
p7098
S'CSF1'
p7099
sS'GENE3112X'
p7100
S'HLA-DOB'
p7101
sS'GENE2781X'
p7102
S'GNAZ'
p7103
sS'GENE2831X'
p7104
S'NPBWR1'
p7105
sS'GENE3814X'
p7106
S'KISS1'
p7107
sS'GENE1459X'
p7108
S'CSNK2A2'
p7109
sS'GENE3841X'
p7110
S'KPNA5'
p7111
sS'GENE2567X'
p7112
S'GABRG3'
p7113
sS'GENE3576X'
p7114
S'IL8'
p7115
sS'GENE1551X'
p7116
S'CYP3A7'
p7117
sS'GENE262X'
p7118
S'AMD1'
p7119
sS'GENE3418X'
p7120
S'IDH2'
p7121
sS'GENE428X'
p7122
S'BBS5'
p7123
sS'GENE2763X'
p7124
S'GMFA'
p7125
sS'GENE2196X'
p7126
S'FAT2'
p7127
sS'GENE2506X'
p7128
S'FTHL14'
p7129
sS'GENE2707X'
p7130
S'GJB3'
p7131
sS'GENE2817X'
p7132
S'GPC1'
p7133
sS'GENE2445X'
p7134
S'FRA11G'
p7135
sS'GENE2410X'
p7136
S'FRA7C'
p7137
sS'GENE3510X'
p7138
S'IGHVOR15@'
p7139
sS'GENE3647X'
p7140
S'EIF3EP1'
p7141
sS'GENE594X'
p7142
S'BCKDHB'
p7143
sS'GENE1347X'
p7144
S'COX7A2'
p7145
sS'GENE353X'
p7146
S'APRT'
p7147
sS'GENE162X'
p7148
S'AP1B1'
p7149
sS'GENE3161X'
p7150
S'HMMR'
p7151
sS'GENE2732X'
p7152
S'GLDCP1'
p7153
sS'GENE28X'
p7154
S'ABO'
p7155
sS'GENE3129X'
p7156
S'HLA-DRB7'
p7157
sS'GENE1542X'
p7158
S'CYMP'
p7159
sS'GENE213X'
p7160
S'ALB'
p7161
sS'GENE398X'
p7162
S'ARHGDIG'
p7163
sS'GENE583X'
p7164
S'BBS2'
p7165
sS'GENE2857X'
p7166
S'GPR34'
p7167
sS'GENE340X'
p7168
S'APOBER1'
p7169
sS'GENE640X'
p7170
S'BLK'
p7171
sS'GENE3280X'
p7172
S'HES1'
p7173
sS'GENE1776X'
p7174
S'DNASE1L3'
p7175
sS'GENE68X'
p7176
S'ACTBP8'
p7177
sS'GENE2469X'
p7178
S'FRA19A'
p7179
sS'GENE1236X'
p7180
S'CCR7'
p7181
sS'GENE3045X'
p7182
S'HBD'
p7183
sS'GENE1884X'
p7184
S'EBR3'
p7185
sS'GENE2177X'
p7186
S'FANCD2'
p7187
sS'GENE1032X'
p7188
S'CDKN2D'
p7189
sS'GENE1417X'
p7190
S'CRYBB3'
p7191
sS'GENE2639X'
p7192
S'GCDH'
p7193
sS'GENE1824X'
p7194
S'DSC2'
p7195
sS'GENE1152X'
p7196
S'CKB'
p7197
sS'GENE2034X'
p7198
S'EPAS1'
p7199
sS'GENE2117X'
p7200
S'ETV3'
p7201
sS'GENE3409X'
p7202
S'IDDM10'
p7203
sS'GENE2541X'
p7204
S'G6PR'
p7205
sS'GENE910X'
p7206
S'CD1B'
p7207
sS'GENE2226X'
p7208
S'FDPSL2'
p7209
sS'GENE2904X'
p7210
S'GRIN2B'
p7211
sS'GENE2509X'
p7212
S'FTH1P5'
p7213
sS'GENE5X'
p7214
S'5'
sS'GENE1118X'
p7215
S'CHIT1'
p7216
sS'GENE3029X'
p7217
S'HAGH'
p7218
sS'GENE1163X'
p7219
S'CKS1B'
p7220
sS'GENE2108X'
p7221
S'ETFA'
p7222
sS'GENE3690X'
p7223
S'ITGB3'
p7224
sS'GENE4000X'
p7225
S'LMNA'
p7226
sS'GENE292X'
p7227
S'SLC25A5'
p7228
sS'GENE3343X'
p7229
S'HTL'
p7230
sS'GENE784X'
p7231
S'CACNB3'
p7232
sS'GENE3402X'
p7233
S'IDDM3'
p7234
sS'GENE2407X'
p7235
S'FRA6G'
p7236
sS'GENE339X'
p7237
S'APOBEC1'
p7238
sS'GENE3798X'
p7239
S'KIF5A'
p7240
sS'GENE3870X'
p7241
S'KRT16L2'
p7242
sS'GENE3577X'
p7243
S'CXCR1'
p7244
sS'GENE2507X'
p7245
S'FTH1P15'
p7246
sS'GENE1893X'
p7247
S'ECM1'
p7248
sS'GENE1535X'
p7249
S'CYBA'
p7250
sS'GENE754X'
p7251
S'PTTG1IP'
p7252
sS'GENE4022X'
p7253
S'4022'
p7254
sS'GENE2467X'
p7255
S'FRA18A'
p7256
sS'GENE2380X'
p7257
S'FRA2H'
p7258
sS'GENE2485X'
p7259
S'FRV2'
p7260
sS'GENE2922X'
p7261
S'GRP'
p7262
sS'GENE2527X'
p7263
S'FUT5'
p7264
sS'GENE2955X'
p7265
S'GTA'
p7266
sS'GENE615X'
p7267
S'BCRL3'
p7268
sS'GENE576X'
p7269
S'BAI2'
p7270
sS'GENE2840X'
p7271
S'GPR17'
p7272
sS'GENE2895X'
p7273
S'GRID2'
p7274
sS'GENE62X'
p7275
S'ACTBP2'
p7276
sS'GENE455X'
p7277
S'ASS1P10'
p7278
sS'GENE3434X'
p7279
S'IFIT1'
p7280
sS'GENE1826X'
p7281
S'DSCAM'
p7282
sS'GENE2913X'
p7283
S'GRM3'
p7284
sS'GENE293X'
p7285
S'SLC25A6'
p7286
sS'GENE2879X'
p7287
S'GPX4'
p7288
sS'GENE783X'
p7289
S'CACNB2'
p7290
sS'GENE366X'
p7291
S'AQP9'
p7292
sS'GENE1477X'
p7293
S'CSTF1'
p7294
sS'GENE1089X'
p7295
S'CEACAM4'
p7296
sS'GENE3557X'
p7297
S'IL1RN'
p7298
sS'GENE2995X'
p7299
S'GYPC'
p7300
sS'GENE1814X'
p7301
S'DRD3'
p7302
sS'GENE3361X'
p7303
S'HTR5A'
p7304
sS'GENE867X'
p7305
S'CBL'
p7306
sS'GENE3334X'
p7307
S'HSPDP5'
p7308
sS'GENE2204X'
p7309
S'FCAR'
p7310
sS'GENE3274X'
p7311
S'HRH2'
p7312
sS'GENE417X'
p7313
S'ART1'
p7314
sS'GENE3221X'
p7315
S'HOXC4'
p7316
sS'GENE624X'
p7317
S'BDKRB2'
p7318
sS'GENE922X'
p7319
S'CD5L'
p7320
sS'GENE2122X'
p7321
S'MECOM'
p7322
sS'GENE2155X'
p7323
S'F7'
p7324
sS'GENE1010X'
p7325
S'CDH12'
p7326
sS'GENE1045X'
p7327
S'CDX2'
p7328
sS'GENE1695X'
p7329
S'1695'
p7330
sS'GENE3052X'
p7331
S'HCCS'
p7332
sS'GENE1941X'
p7333
S'EFMR'
p7334
sS'GENE2620X'
p7335
S'GAS2'
p7336
sS'GENE108X'
p7337
S'ADCY2'
p7338
sS'GENE3745X'
p7339
S'KCNB1'
p7340
sS'GENE3016X'
p7341
S'3016'
p7342
sS'GENE1690X'
p7343
S'COCH'
p7344
sS'GENE3088X'
p7345
S'HHG'
p7346
sS'GENE2142X'
p7347
S'EYCL2'
p7348
sS'GENE1007X'
p7349
S'CDH9'
p7350
sS'GENE845X'
p7351
S'CASQ2'
p7352
sS'GENE2082X'
p7353
S'ERPL1'
p7354
sS'GENE1952X'
p7355
S'CELSR2'
p7356
sS'GENE2633X'
p7357
S'GBP1'
p7358
sS'GENE3253X'
p7359
S'HPRTP1'
p7360
sS'GENE795X'
p7361
S'S100G'
p7362
sS'GENE1185X'
p7363
S'CLCN6'
p7364
sS'GENE838X'
p7365
S'CASP5'
p7366
sS'GENE483X'
p7367
S'ATP1B3'
p7368
sS'GENE1058X'
p7369
S'CENPA'
p7370
sS'GENE2268X'
p7371
S'FGR'
p7372
sS'GENE3258X'
p7373
S'HPT'
p7374
sS'GENE437X'
p7375
S'ASMD'
p7376
sS'GENE1021X'
p7377
S'CDK6'
p7378
sS'GENE1400X'
p7379
S'CRMP1'
p7380
sS'GENE3963X'
p7381
S'LGALS7'
p7382
sS'GENE3023X'
p7383
S'H4F3'
p7384
sS'GENE1930X'
p7385
S'EEF1AL12'
p7386
sS'GENE3098X'
p7387
S'HK1'
p7388
sS'GENE2610X'
p7389
S'GAPDHL13'
p7390
sS'GENE3687X'
p7391
S'ITGAX'
p7392
sS'GENE3207X'
p7393
S'HOXA11'
p7394
sS'GENE1755X'
p7395
S'DMBT1'
p7396
sS'GENE807X'
p7397
S'CALM2P3'
p7398
sS'GENE3350X'
p7399
S'HTR1A'
p7400
sS'GENE2530X'
p7401
S'FUT8'
p7402
sS'GENE2077X'
p7403
S'ERF'
p7404
sS'GENE1575X'
p7405
S'CYP3A3'
p7406
sS'GENE2131X'
p7407
S'EXT1'
p7408
sS'GENE2179X'
p7409
S'FACL1'
p7410
sS'GENE182X'
p7411
S'JAG1'
p7412
sS'GENE3004X'
p7413
S'GZMM'
p7414
sS'GENE1069X'
p7415
S'CETN2'
p7416
sS'GENE1632X'
p7417
S'ECI1'
p7418
sS'GENE2219X'
p7419
S'FCN1'
p7420
sS'GENE2589X'
p7421
S'GALNT1'
p7422
sS'GENE1145X'
p7423
S'CHRNE'
p7424
sS'GENE746X'
p7425
S'TMEM258'
p7426
sS'GENE1198X'
p7427
S'CLK3'
p7428
sS'GENE2630X'
p7429
S'GBAP1'
p7430
sS'GENE1909X'
p7431
S'EDNRA'
p7432
sS'GENE2668X'
p7433
S'GDNF'
p7434
sS'GENE1361X'
p7435
S'CPB2'
p7436
sS'GENE538X'
p7437
S'ATP7A'
p7438
sS'GENE3236X'
p7439
S'HOXD10'
p7440
sS'GENE903X'
p7441
S'903'
p7442
sS'GENE671X'
p7443
S'BPI'
p7444
sS'GENE2315X'
p7445
S'MLANA'
p7446
sS'GENE502X'
p7447
S'ATP5AL2'
p7448
sS'GENE712X'
p7449
S'C1QA'
p7450
sS'GENE8X'
p7451
S'AA'
p7452
sS'GENE3704X'
p7453
S'ITPA'
p7454
sS'GENE1256X'
p7455
S'1256'
p7456
sS'GENE3751X'
p7457
S'KCND2'
p7458
sS'GENE1856X'
p7459
S'DVL2'
p7460
sS'GENE1873X'
p7461
S'E2F3P2'
p7462
sS'GENE981X'
p7463
S'CDAN3'
p7464
sS'GENE1821X'
p7465
S'DRP2'
p7466
sS'GENE1729X'
p7467
S'DIAPH1'
p7468
sS'GENE3973X'
p7469
S'LHCGR'
p7470
sS'GENE3904X'
p7471
S'LAIR2'
p7472
sS'GENE3735X'
p7473
S'KARS'
p7474
sS'GENE3606X'
p7475
S'IL18'
p7476
sS'GENE892X'
p7477
S'CCNC'
p7478
sS'GENE871X'
p7479
S'SERPINH1'
p7480
sS'GENE3537X'
p7481
S'IGLC1'
p7482
sS'GENE1333X'
p7483
S'COX5BP4'
p7484
sS'GENE3760X'
p7485
S'KCNJ3'
p7486
sS'GENE495X'
p7487
S'ATP4A'
p7488
sS'GENE3942X'
p7489
S'LDHAL3'
p7490
sS'GENE3396X'
p7491
S'ICT1'
p7492
sS'GENE3186X'
p7493
S'RBMXP1'
p7494
sS'GENE101X'
p7495
S'ADAM8'
p7496
sS'GENE2245X'
p7497
S'FGD1'
p7498
sS'GENE3210X'
p7499
S'HOXB@'
p7500
sS'GENE965X'
p7501
S'CD58'
p7502
sS'GENE1380X'
p7503
S'CR2'
p7504
sS'GENE1758X'
p7505
S'DMP1'
p7506
sS'GENE3960X'
p7507
S'LGALS4'
p7508
sS'GENE2348X'
p7509
S'FOLR1'
p7510
sS'GENE849X'
p7511
S'849'
p7512
sS'GENE2033X'
p7513
S'EP300'
p7514
sS'GENE3611X'
p7515
S'ILK'
p7516
sS'GENE1685X'
p7517
S'1685'
p7518
sS'GENE914X'
p7519
S'CD2'
p7520
sS'GENE1707X'
p7521
S'DFNB15'
p7522
sS'GENE1302X'
p7523
S'COL11A2'
p7524
sS'GENE3376X'
p7525
S'IARS'
p7526
sS'GENE870X'
p7527
S'CBLN2'
p7528
sS'GENE3398X'
p7529
S'ID2'
p7530
sS'GENE938X'
p7531
S'CD24P4'
p7532
sS'GENE2091X'
p7533
S'FBL'
p7534
sS'GENE1963X'
p7535
S'EIF1'
p7536
sS'GENE2602X'
p7537
S'2602'
p7538
sS'GENE1745X'
p7539
S'DLX1'
p7540
sS'GENE1710X'
p7541
S'DFNB18'
p7542
sS'GENE1315X'
p7543
S'COPB1'
p7544
sS'GENE881X'
p7545
S'CCIN'
p7546
sS'GENE29X'
p7547
S'ABR'
p7548
sS'GENE1698X'
p7549
S'DFNB6'
p7550
sS'GENE3719X'
p7551
S'JBS'
p7552
sS'GENE662X'
p7553
S'BNIP1'
p7554
sS'GENE515X'
p7555
S'ATP5F1'
p7556
sS'GENE3596X'
p7557
S'IL13'
p7558
sS'GENE2731X'
p7559
S'GLDC'
p7560
sS'GENE2764X'
p7561
S'GMFB'
p7562
sS'GENE2195X'
p7563
S'FAT1'
p7564
sS'GENE654X'
p7565
S'BMP6'
p7566
sS'GENE2332X'
p7567
S'FMR1'
p7568
sS'GENE2814X'
p7569
S'GP5'
p7570
sS'GENE2411X'
p7571
S'FRA7D'
p7572
sS'GENE1989X'
p7573
S'EKV'
p7574
sS'GENE3511X'
p7575
S'IGHVOR16@'
p7576
sS'GENE46X'
p7577
S'ACLS'
p7578
sS'GENE2748X'
p7579
S'2748'
p7580
sS'GENE3648X'
p7581
S'IOSCA'
p7582
sS'GENE880X'
p7583
S'CCAT'
p7584
sS'GENE2422X'
p7585
S'FRA8D'
p7586
sS'GENE3160X'
p7587
S'HMI'
p7588
sS'GENE163X'
p7589
S'AP2B1'
p7590
sS'GENE1242X'
p7591
S'1242'
p7592
sS'GENE3128X'
p7593
S'HLA-DRB6'
p7594
sS'GENE1235X'
p7595
S'CCR6'
p7596
sS'GENE804X'
p7597
S'CALM1P2'
p7598
sS'GENE3855X'
p7599
S'KRT7'
p7600
sS'GENE2779X'
p7601
S'GNAT1'
p7602
sS'GENE739X'
p7603
S'C11orf3'
p7604
sS'GENE1518X'
p7605
S'CTSLP8'
p7606
sS'GENE584X'
p7607
S'BBS3'
p7608
sS'GENE2809X'
p7609
S'GOT2L3P'
p7610
sS'GENE2854X'
p7611
S'GPR32'
p7612
sS'GENE1219X'
p7613
S'CMD1C'
p7614
sS'GENE3281X'
p7615
S'HSBP1'
p7616
sS'GENE3839X'
p7617
S'KPNA3'
p7618
sS'GENE238X'
p7619
S'ALK'
p7620
sS'GENE2320X'
p7621
S'2320'
p7622
sS'GENE243X'
p7623
S'ALOX12P1'
p7624
sS'GENE3442X'
p7625
S'IFNA5'
p7626
sS'GENE638X'
p7627
S'BIK'
p7628
sS'GENE2468X'
p7629
S'FRA18B'
p7630
sS'GENE755X'
p7631
S'C21orf2'
p7632
sS'GENE1643X'
p7633
S'DDB2'
p7634
sS'GENE2397X'
p7635
S'FRA5D'
p7636
sS'GENE451X'
p7637
S'ASS1P6'
p7638
sS'GENE1299X'
p7639
S'COL9A3'
p7640
sS'GENE3191X'
p7641
S'HNRNPL'
p7642
sS'GENE170X'
p7643
S'AFA'
p7644
sS'GENE3126X'
p7645
S'HLA-DRB4'
p7646
sS'GENE2252X'
p7647
S'FGF7'
p7648
sS'GENE3913X'
p7649
S'LAMB2'
p7650
sS'GENE1618X'
p7651
S'DAZL'
p7652
sS'GENE3895X'
p7653
S'KTN1'
p7654
sS'GENE3146X'
p7655
S'HMGB1'
p7656
sS'GENE1217X'
p7657
S'CMD1A'
p7658
sS'GENE2285X'
p7659
S'FKBP1AP4'
p7660
sS'GENE3955X'
p7661
S'LFNG'
p7662
sS'GENE1598X'
p7663
S'CZP2'
p7664
sS'GENE1357X'
p7665
S'CPA1'
p7666
sS'GENE2188X'
p7667
S'FANCF'
p7668
sS'GENE3027X'
p7669
S'HADH'
p7670
sS'GENE3664X'
p7671
S'IRF6'
p7672
sS'GENE1994X'
p7673
S'ELAVL1'
p7674
sS'GENE1251X'
p7675
S'CMT4A'
p7676
sS'GENE3159X'
p7677
S'HMGA1'
p7678
sS'GENE1377X'
p7679
S'CPX'
p7680
sS'GENE1785X'
p7681
S'DNM2'
p7682
sS'GENE643X'
p7683
S'CXCR5'
p7684
sS'GENE2303X'
p7685
S'FOXC2'
p7686
sS'GENE1650X'
p7687
S'DDOST'
p7688
sS'GENE1268X'
p7689
S'CNR1'
p7690
sS'GENE3296X'
p7691
S'HSD17BP1'
p7692
sS'GENE737X'
p7693
S'C11orf1'
p7694
sS'GENE3464X'
p7695
S'IFNP23'
p7696
sS'GENE616X'
p7697
S'BCRP4'
p7698
sS'GENE2406X'
p7699
S'FRA6F'
p7700
sS'GENE3799X'
p7701
S'KIF5B'
p7702
sS'GENE338X'
p7703
S'APOB'
p7704
sS'GENE3587X'
p7705
S'IL10RA'
p7706
sS'GENE3877X'
p7707
S'KRT18P13'
p7708
sS'GENE1892X'
p7709
S'ECHS1'
p7710
sS'GENE558X'
p7711
S'AXL'
p7712
sS'GENE636X'
p7713
S'BICD1'
p7714
sS'GENE2466X'
p7715
S'FRA17B'
p7716
sS'GENE2832X'
p7717
S'NPBWR2'
p7718
sS'GENE2381X'
p7719
S'FRA2I'
p7720
sS'GENE4025X'
p7721
S'LPO'
p7722
sS'GENE2484X'
p7723
S'FRV1'
p7724
sS'GENE1589X'
p7725
S'CYP21A2'
p7726
sS'GENE2923X'
p7727
S'PDIA3'
p7728
sS'GENE306X'
p7729
S'ANXA3'
p7730
sS'GENE2954X'
p7731
S'GSTZ1'
p7732
sS'GENE2579X'
p7733
S'GAGE7'
p7734
sS'GENE2524X'
p7735
S'FUT2'
p7736
sS'GENE2994X'
p7737
S'GYPB'
p7738
sS'GENE65X'
p7739
S'ACTBP5'
p7740
sS'GENE571X'
p7741
S'BACH1'
p7742
sS'GENE2843X'
p7743
S'GPR20'
p7744
sS'GENE866X'
p7745
S'SERPINA6'
p7746
sS'GENE2912X'
p7747
S'GRM2'
p7748
sS'GENE272X'
p7749
S'AMPD3'
p7750
sS'GENE757X'
p7751
S'TMEM50B'
p7752
sS'GENE1536X'
p7753
S'CYBB'
p7754
sS'GENE1476X'
p7755
S'CSTB'
p7756
sS'GENE367X'
p7757
S'AR'
p7758
sS'GENE2392X'
p7759
S'FRA4E'
p7760
sS'GENE3560X'
p7761
S'IL2RB'
p7762
sS'GENE841X'
p7763
S'CASP8'
p7764
sS'GENE1631X'
p7765
S'DCE'
p7766
sS'GENE2930X'
p7767
S'GSK2'
p7768
sS'GENE2021X'
p7769
S'ENDOG'
p7770
sS'GENE3473X'
p7771
S'IFNWP18'
p7772
sS'GENE3995X'
p7773
S'FADS3'
p7774
sS'GENE1490X'
p7775
S'CTGF'
p7776
sS'GENE341X'
p7777
S'APOC1'
p7778
sS'GENE3173X'
p7779
S'HNF4B'
p7780
sS'GENE152X'
p7781
S'ADRA2C'
p7782
sS'GENE3104X'
p7783
S'ZBTB48'
p7784
sS'GENE2726X'
p7785
S'GLC1F'
p7786
sS'GENE2678X'
p7787
S'GGT1'
p7788
sS'GENE81X'
p7789
S'ACTN4'
p7790
sS'GENE1441X'
p7791
S'CSF3R'
p7792
sS'GENE1434X'
p7793
S'CSE1L'
p7794
sS'GENE43X'
p7795
S'ACHE'
p7796
sS'GENE3113X'
p7797
S'HLA-DPA1'
p7798
sS'GENE38X'
p7799
S'ACAT1'
p7800
sS'GENE440X'
p7801
S'ASNS'
p7802
sS'GENE2786X'
p7803
S'GNG4'
p7804
sS'GENE1642X'
p7805
S'DDB1'
p7806
sS'GENE4003X'
p7807
S'LMNL2'
p7808
sS'GENE1458X'
p7809
S'CSNK2A1P'
p7810
sS'GENE309X'
p7811
S'ANXA6'
p7812
sS'GENE1222X'
p7813
S'CMD1F'
p7814
sS'GENE2154X'
p7815
S'F5F8D'
p7816
sS'GENE2564X'
p7817
S'GABRE'
p7818
sS'GENE265X'
p7819
S'AMELX'
p7820
sS'GENE1556X'
p7821
S'CYP2B7P1'
p7822
sS'GENE1529X'
p7823
S'CYB5P1'
p7824
sS'GENE1401X'
p7825
S'CRP'
p7826
sS'GENE400X'
p7827
S'ARL1'
p7828
sS'GENE1026X'
p7829
S'CDKN1A'
p7830
sS'GENE1931X'
p7831
S'EEF1AL13'
p7832
sS'GENE1676X'
p7833
S'DFFA'
p7834
sS'GENE2683X'
p7835
S'2683'
p7836
sS'GENE2652X'
p7837
S'OPN1MW'
p7838
sS'GENE553X'
p7839
S'AVPR1B'
p7840
sS'GENE3680X'
p7841
S'ITGA9'
p7842
sS'GENE2533X'
p7843
S'FYB'
p7844
sS'GENE3073X'
p7845
S'HEXA'
p7846
sS'GENE2130X'
p7847
S'EWSR1'
p7848
sS'GENE3099X'
p7849
S'HK2'
p7850
sS'GENE2178X'
p7851
S'FANCE'
p7852
sS'GENE183X'
p7853
S'AGT'
p7854
sS'GENE138X'
p7855
S'ADORA2L1'
p7856
sS'GENE1066X'
p7857
S'CES1'
p7858
sS'GENE1091X'
p7859
S'CEACAMP2'
p7860
sS'GENE1144X'
p7861
S'CHRND'
p7862
sS'GENE3351X'
p7863
S'HTR1B'
p7864
sS'GENE4010X'
p7865
S'LMX1B'
p7866
sS'GENE1908X'
p7867
S'EDN3'
p7868
sS'GENE2232X'
p7869
S'FDXR'
p7870
sS'GENE3493X'
p7871
S'IGHA1'
p7872
sS'GENE3421X'
p7873
S'IDH3G'
p7874
sS'GENE3860X'
p7875
S'KRT13'
p7876
sS'GENE1885X'
p7877
S'EBR4'
p7878
sS'GENE2542X'
p7879
S'SLC37A4'
p7880
sS'GENE3042X'
p7881
S'HBM'
p7882
sS'GENE3324X'
p7883
S'HSP90AA2'
p7884
sS'GENE1231X'
p7885
S'CCR2'
p7886
sS'GENE2176X'
p7887
S'FANCC'
p7888
sS'GENE1416X'
p7889
S'CRYBB2P1'
p7890
sS'GENE471X'
p7891
S'ATIC'
p7892
sS'GENE2943X'
p7893
S'GSTA7P'
p7894
sS'GENE1560X'
p7895
S'1560'
p7896
sS'GENE1153X'
p7897
S'CIRBP'
p7898
sS'GENE988X'
p7899
S'CDC5L'
p7900
sS'GENE2116X'
p7901
S'ETV2'
p7902
sS'GENE2905X'
p7903
S'GRIN2C'
p7904
sS'GENE2221X'
p7905
S'FCP1'
p7906
sS'GENE2054X'
p7907
S'STX2'
p7908
sS'GENE1119X'
p7909
S'CHKA'
p7910
sS'GENE1162X'
p7911
S'1162'
p7912
sS'GENE2109X'
p7913
S'ETFB'
p7914
sS'GENE2143X'
p7915
S'FDX2'
p7916
sS'GENE1225X'
p7917
S'CMDJ'
p7918
sS'GENE562X'
p7919
S'BCH'
p7920
sS'GENE188X'
p7921
S'AGTRL2'
p7922
sS'GENE1455X'
p7923
S'CSNK1G2'
p7924
sS'GENE3342X'
p7925
S'HTC2'
p7926
sS'GENE4007X'
p7927
S'PRICKLE3'
p7928
sS'GENE2214X'
p7929
S'FCGR3A'
p7930
sS'GENE1766X'
p7931
S'DNAH3'
p7932
sS'GENE3217X'
p7933
S'HOXB7'
p7934
sS'GENE689X'
p7935
S'BTF3'
p7936
sS'GENE2349X'
p7937
S'FOLR1P'
p7938
sS'GENE1868X'
p7939
S'DYX2'
p7940
sS'GENE3610X'
p7941
S'ILF3L'
p7942
sS'GENE240X'
p7943
S'ALOX5'
p7944
sS'GENE2665X'
p7945
S'GDI2'
p7946
sS'GENE3729X'
p7947
S'K12T'
p7948
sS'GENE1706X'
p7949
S'DFNB14'
p7950
sS'GENE3377X'
p7951
S'IBD1'
p7952
sS'GENE796X'
p7953
S'CALCA'
p7954
sS'GENE1301X'
p7955
S'COL11A1'
p7956
sS'GENE3399X'
p7957
S'ID3'
p7958
sS'GENE2646X'
p7959
S'GCKR'
p7960
sS'GENE1071X'
p7961
S'CETP'
p7962
sS'GENE1962X'
p7963
S'EHHADH'
p7964
sS'GENE1791X'
p7965
S'DNTT'
p7966
sS'GENE2096X'
p7967
S'ESAT'
p7968
sS'GENE2601X'
p7969
S'GAPDHP60'
p7970
sS'GENE1744X'
p7971
S'DLSTP1'
p7972
sS'GENE1711X'
p7973
S'DMXL2'
p7974
sS'GENE1854X'
p7975
S'DUT'
p7976
sS'GENE1316X'
p7977
S'KLF6'
p7978
sS'GENE1048X'
p7979
S'CEACAM5'
p7980
sS'GENE3248X'
p7981
S'HPGD'
p7982
sS'GENE1098X'
p7983
S'CEACAMP10'
p7984
sS'GENE514X'
p7985
S'ATP5E'
p7986
sS'GENE544X'
p7987
S'ALDH7A1P4'
p7988
sS'GENE3360X'
p7989
S'HTR4'
p7990
sS'GENE1813X'
p7991
S'DRD2'
p7992
sS'GENE3335X'
p7993
S'HSPDP6'
p7994
sS'GENE1134X'
p7995
S'CHRNA1'
p7996
sS'GENE930X'
p7997
S'CD19'
p7998
sS'GENE923X'
p7999
S'CD6'
p8000
sS'GENE2203X'
p8001
S'FBP1'
p8002
sS'GENE414X'
p8003
S'ARSD'
p8004
sS'GENE3277X'
p8005
S'3277'
p8006
sS'GENE1199X'
p8007
S'CLM'
p8008
sS'GENE2583X'
p8009
S'B4GALNT1'
p8010
sS'GENE2123X'
p8011
S'EVI2A'
p8012
sS'GENE3319X'
p8013
S'HSPBL3'
p8014
sS'GENE1795X'
p8015
S'DOCK3'
p8016
sS'GENE3805X'
p8017
S'KIR2DL4'
p8018
sS'GENE1940X'
p8019
S'EEGV1'
p8020
sS'GENE1046X'
p8021
S'CDX4'
p8022
sS'GENE3055X'
p8023
S'HCK'
p8024
sS'GENE1093X'
p8025
S'CEACAMP4'
p8026
sS'GENE820X'
p8027
S'CAMP'
p8028
sS'GENE3095X'
p8029
S'HIVE1'
p8030
sS'GENE694X'
p8031
S'BTG1'
p8032
sS'GENE3328X'
p8033
S'HSPCP2'
p8034
sS'GENE1000X'
p8035
S'CDH2'
p8036
sS'GENE1953X'
p8037
S'MEGF6'
p8038
sS'GENE2593X'
p8039
S'GAMT'
p8040
sS'GENE1184X'
p8041
S'CLCN5'
p8042
sS'GENE839X'
p8043
S'CASP6'
p8044
sS'GENE236X'
p8045
S'AKR1B1P2'
p8046
sS'GENE1086X'
p8047
S'CEACAMP11'
p8048
s.