(dp1
S'test_acc_pathway'
p2
cnumpy.core.multiarray
scalar
p3
(cnumpy
dtype
p4
(S'f8'
I0
I1
tRp5
(I3
S'<'
NNNI-1
I-1
I0
tbS'\xb8\x1e\x85\xebQ\xb8\xee?'
tRp6
sS'generank_pathway'
p7
(lp8
I1
aI3
aI12
aI14
aI17
aI18
aI19
aI21
aI22
aI25
aI26
aI29
aI32
aI34
aI36
aI42
aI45
aI52
aI53
aI58
aI59
aI61
aI71
aI73
aI74
aI80
aI85
aI89
aI101
aI103
aI104
aI107
aI114
aI116
aI134
aI137
aI140
aI144
aI151
aI154
aI184
aI188
aI190
aI201
aI208
aI211
aI215
aI218
aI220
aI255
aI264
aI268
aI280
aI295
aI300
aI302
aI307
aI309
aI325
aI336
aI365
aI394
aI404
aI411
aI414
aI418
aI472
aI473
aI501
aI525
aI527
aI564
aI594
aI612
aI620
aI630
aI632
aI640
aI673
aI693
aI713
aI747
aI807
aI845
aI964
aI970
aI1017
aI1141
aI1146
aI1186
aI1222
aI1247
aI1309
aI1433
aI1437
aI1439
aI1446
aI1527
aI1545
aI1555
aI1656
aI1676
aI1781
aI1801
aI1870
aI1871
aI1909
aI1918
aI1998
aI2075
aI2087
aI2147
aI2220
aI2236
aI2307
aI2321
aI2738
aI2772
aI2977
aI2983
aI2987
aI3045
aI3078
aI3141
aI3316
aI3323
aI3391
aI3415
aI3509
aI3569
aI3596
aI3610
aI3627
aI3775
aI3785
aI3883
aI4039
aI4072
aI4181
aI4296
aI4384
aI4411
aI4499
aI4516
aI4582
aI4698
aI4752
aI4754
aI5175
aI5185
aI5373
aI5407
aI5411
aI5430
aI5491
aI5504
aI5727
aI5730
aI5744
aI5871
aI6080
aI6111
aI6255
aI6349
aI6408
aI6457
aI6553
aI6581
aI6637
aI6757
aI6759
aI6856
aI6917
aI7170
aI7195
aI7323
aI7492
aI7542
aI7626
aI7673
aI7728
aI7755
aI8371
aI8443
aI8540
aI9022
aI9141
aI9540
aI9662
aI9844
aI10085
aI10178
aI10202
aI10284
aI10329
aI10430
aI10716
aI11138
aI11336
aI11370
aI11554
aI11572
aI11614
aI11721
aI11722
aI11855
aI11912
asS'generank_svm'
p9
(lp10
I2
aI8
aI25
aI38
aI84
aI131
aI200
aI208
aI298
aI475
aI620
aI838
aI1042
aI1089
aI1230
aI1415
aI1707
aI2034
aI2781
aI3182
aI4390
aI7584
asS'dataset'
p11
S'Influenza 11-14'
p12
sS'generank_pair'
p13
(lp14
I3
aI15
aI19
aI20
aI21
aI22
aI26
aI39
aI41
aI50
aI61
aI70
aI78
aI96
aI103
aI116
aI118
aI140
aI141
aI148
aI157
aI187
aI195
aI202
aI204
aI218
aI240
aI242
aI264
aI266
aI271
aI291
aI345
aI387
aI395
aI398
aI399
aI442
aI473
aI480
aI499
aI509
aI525
aI539
aI568
aI575
aI611
aI640
aI644
aI653
aI690
aI720
aI722
aI729
aI767
aI773
aI814
aI865
aI890
aI896
aI909
aI942
aI971
aI991
aI994
aI1000
aI1049
aI1052
aI1066
aI1097
aI1109
aI1148
aI1166
aI1230
aI1295
aI1311
aI1313
aI1325
aI1332
aI1415
aI1542
aI1544
aI1597
aI1662
aI1669
aI1693
aI1754
aI1763
aI1771
aI1792
aI1799
aI1813
aI1926
aI1930
aI1976
aI2189
aI2213
aI2236
aI2241
aI2302
aI2305
aI2496
aI2814
aI2871
aI2924
aI2980
aI2993
aI3067
aI3100
aI3137
aI3152
aI3185
aI3190
aI3229
aI3231
aI3337
aI3468
aI3527
aI3566
aI3592
aI3753
aI3806
aI4026
aI4057
aI4181
aI4212
aI4282
aI4516
aI4583
aI4586
aI4630
aI4668
aI4677
aI4779
aI4825
aI4850
aI4856
aI4869
aI4947
aI5088
aI5212
aI5253
aI5313
aI5459
aI5461
aI5565
aI5575
aI5638
aI5760
aI5773
aI5811
aI6032
aI6504
aI6553
aI6673
aI6692
aI6939
aI7194
aI7241
aI7268
aI7299
aI7557
aI7617
aI7660
aI7799
aI7978
aI8177
aI8449
aI8577
aI8579
aI9024
aI9197
aI9254
aI9412
aI9537
aI9965
aI9976
aI10167
aI10346
aI11065
aI11138
aI11587
asS'test_acc_svm'
p15
F0.93333333333333335
sS'pair'
p16
S'biopolymer catabolism + nucleobase, nucleoside, nucleotide and nucleic acid metabolism'
p17
sS'test_acc_pair'
p18
g3
(g5
S'\xb8\x1e\x85\xebQ\xb8\xee?'
tRp19
sS'pathway'
p20
S'defense response'
p21
s.